

Microchip MPLAB XC8 Assembler V2.46 build 20240104201356 
                                                                                               Tue Nov 25 14:45:36 2025

Microchip MPLAB XC8 C Compiler v2.46 (Free license) build 20240104201356 Og1 
     1                           	processor	16F1936
     2                           	pagewidth 120
     3                           	opt	flic
     4                           	psect	idataBANK0,global,class=CODE,delta=2,noexec
     5                           	psect	stringtext1,global,class=STRCODE,delta=2,noexec
     6                           	psect	cinit,global,class=CODE,merge=1,delta=2
     7                           	psect	bssCOMMON,global,class=COMMON,space=1,delta=1,noexec
     8                           	psect	bssBANK0,global,class=BANK0,space=1,delta=1,noexec
     9                           	psect	dataBANK0,global,class=BANK0,space=1,delta=1,noexec
    10                           	psect	bssBANK1,global,class=BANK1,space=1,delta=1,noexec
    11                           	psect	clrtext,global,class=CODE,delta=2
    12                           	psect	cstackBANK1,global,class=BANK1,space=1,delta=1,noexec
    13                           	psect	cstackCOMMON,global,class=COMMON,space=1,delta=1,noexec
    14                           	psect	cstackBANK0,global,class=BANK0,space=1,delta=1,noexec
    15                           	psect	maintext,global,class=CODE,merge=1,split=1,delta=2
    16                           	psect	text1,local,class=CODE,merge=1,delta=2
    17                           	psect	text2,local,class=CODE,merge=1,delta=2
    18                           	psect	text3,local,class=CODE,merge=1,delta=2
    19                           	psect	text4,local,class=CODE,merge=1,delta=2
    20                           	psect	text5,local,class=CODE,merge=1,delta=2
    21                           	psect	text6,local,class=CODE,merge=1,delta=2
    22                           	psect	text7,local,class=CODE,merge=1,delta=2
    23                           	psect	text8,local,class=CODE,merge=1,delta=2
    24                           	psect	text9,local,class=CODE,merge=1,delta=2
    25                           	psect	text10,local,class=CODE,merge=1,delta=2
    26                           	psect	text11,local,class=CODE,merge=1,delta=2
    27                           	psect	text12,local,class=CODE,merge=1,delta=2
    28                           	psect	text13,local,class=CODE,merge=1,delta=2
    29                           	psect	text14,local,class=CODE,merge=1,delta=2
    30                           	psect	text15,local,class=CODE,merge=1,delta=2
    31                           	psect	text16,local,class=CODE,merge=1,delta=2
    32                           	psect	text17,local,class=CODE,merge=1,delta=2
    33                           	psect	text18,local,class=CODE,merge=1,delta=2
    34                           	psect	text19,local,class=CODE,merge=1,delta=2
    35                           	psect	text20,local,class=CODE,merge=1,delta=2
    36                           	psect	text21,local,class=CODE,merge=1,delta=2
    37                           	psect	text22,local,class=CODE,merge=1,delta=2
    38                           	psect	text23,local,class=CODE,merge=1,delta=2,group=2
    39                           	psect	text24,local,class=CODE,merge=1,delta=2
    40                           	psect	text25,local,class=CODE,merge=1,delta=2
    41                           	psect	text26,local,class=CODE,merge=1,delta=2
    42                           	psect	text27,local,class=CODE,merge=1,delta=2
    43                           	psect	text28,local,class=CODE,merge=1,delta=2
    44                           	psect	text29,local,class=CODE,merge=1,delta=2
    45                           	psect	text30,local,class=CODE,merge=1,delta=2
    46                           	psect	text31,local,class=CODE,merge=1,delta=2
    47                           	psect	text32,local,class=CODE,merge=1,delta=2
    48                           	psect	text33,local,class=CODE,merge=1,delta=2,group=2
    49                           	psect	text34,local,class=CODE,merge=1,delta=2
    50                           	psect	text35,local,class=CODE,merge=1,delta=2
    51                           	psect	text36,local,class=CODE,merge=1,delta=2
    52                           	psect	text37,local,class=CODE,merge=1,delta=2
    53                           	psect	text38,local,class=CODE,merge=1,delta=2
    54                           	psect	text39,local,class=CODE,merge=1,delta=2
    55                           	psect	text40,local,class=CODE,merge=1,delta=2
    56                           	psect	text41,local,class=CODE,merge=1,delta=2
    57                           	psect	text42,local,class=CODE,merge=1,delta=2
    58                           	psect	text43,local,class=CODE,merge=1,delta=2
    59                           	psect	text44,local,class=CODE,merge=1,delta=2
    60                           	psect	text45,local,class=CODE,merge=1,delta=2
    61                           	psect	intentry,global,class=CODE,delta=2
    62                           	psect	text47,local,class=CODE,merge=1,delta=2
    63                           	psect	text48,local,class=CODE,merge=1,delta=2
    64                           	psect	text49,local,class=CODE,merge=1,delta=2
    65                           	psect	text50,local,class=CODE,merge=1,delta=2
    66                           	psect	text51,local,class=CODE,merge=1,delta=2
    67                           	psect	text52,local,class=CODE,merge=1,delta=2
    68                           	psect	text53,local,class=CODE,merge=1,delta=2
    69                           	psect	text54,local,class=CODE,merge=1,delta=2
    70                           	psect	text55,local,class=CODE,merge=1,delta=2
    71                           	psect	idloc,global,abs,ovrld,class=IDLOC,space=5,delta=2,noexec
    72                           	psect	config,global,abs,ovrld,class=CONFIG,space=4,delta=2,noexec
    73                           	dabs	1,0x7E,2
    74     0000                     
    75                           ; Version 2.20
    76                           ; Generated 12/02/2020 GMT
    77                           ; 
    78                           ; Copyright © 2020, Microchip Technology Inc. and its subsidiaries ("Microchip")
    79                           ; All rights reserved.
    80                           ; 
    81                           ; This software is developed by Microchip Technology Inc. and its subsidiaries ("Microch
      +                          ip").
    82                           ; 
    83                           ; Redistribution and use in source and binary forms, with or without modification, are
    84                           ; permitted provided that the following conditions are met:
    85                           ; 
    86                           ;     1. Redistributions of source code must retain the above copyright notice, this lis
      +                          t of
    87                           ;        conditions and the following disclaimer.
    88                           ; 
    89                           ;     2. Redistributions in binary form must reproduce the above copyright notice, this 
      +                          list
    90                           ;        of conditions and the following disclaimer in the documentation and/or other
    91                           ;        materials provided with the distribution.
    92                           ; 
    93                           ;     3. Microchip's name may not be used to endorse or promote products derived from th
      +                          is
    94                           ;        software without specific prior written permission.
    95                           ; 
    96                           ; THIS SOFTWARE IS PROVIDED BY MICROCHIP "AS IS" AND ANY EXPRESS OR IMPLIED WARRANTIES,
    97                           ; INCLUDING, BUT NOT LIMITED TO, THE IMPLIED WARRANTIES OF MERCHANTABILITY AND FITNESS F
      +                          OR
    98                           ; PURPOSE ARE DISCLAIMED.  IN NO EVENT SHALL MICROCHIP BE LIABLE FOR ANY DIRECT, INDIREC
      +                          T,
    99                           ; INCIDENTAL, SPECIAL, EXEMPLARY, OR CONSEQUENTIAL DAMAGES (INCLUDING BUT NOT LIMITED TO
   100                           ; PROCUREMENT OF SUBSTITUTE GOODS OR SERVICES; LOSS OF USE, DATA OR PROFITS; OR BUSINESS
   101                           ; INTERRUPTION) HOWSOEVER CAUSED AND ON ANY THEORY OF LIABILITY, WHETHER IN CONTRACT, ST
      +                          RICT
   102                           ; LIABILITY, OR TORT (INCLUDING NEGLIGENCE OR OTHERWISE) ARISING IN ANY WAY OUT OF THE U
      +                          SE OF
   103                           ; THIS SOFTWARE, EVEN IF ADVISED OF THE POSSIBILITY OF SUCH DAMAGE.
   104                           ; 
   105                           ; 
   106                           ; Code-generator required, PIC16F1936 Definitions
   107                           ; 
   108                           ; SFR Addresses
   109     0000                     	;# 
   110     0001                     	;# 
   111     0002                     	;# 
   112     0003                     	;# 
   113     0004                     	;# 
   114     0005                     	;# 
   115     0006                     	;# 
   116     0007                     	;# 
   117     0008                     	;# 
   118     0009                     	;# 
   119     000A                     	;# 
   120     000B                     	;# 
   121     000C                     	;# 
   122     000D                     	;# 
   123     000E                     	;# 
   124     0010                     	;# 
   125     0011                     	;# 
   126     0012                     	;# 
   127     0013                     	;# 
   128     0015                     	;# 
   129     0016                     	;# 
   130     0016                     	;# 
   131     0017                     	;# 
   132     0018                     	;# 
   133     0019                     	;# 
   134     001A                     	;# 
   135     001B                     	;# 
   136     001C                     	;# 
   137     001E                     	;# 
   138     001F                     	;# 
   139     008C                     	;# 
   140     008D                     	;# 
   141     008E                     	;# 
   142     0090                     	;# 
   143     0091                     	;# 
   144     0092                     	;# 
   145     0093                     	;# 
   146     0095                     	;# 
   147     0096                     	;# 
   148     0097                     	;# 
   149     0098                     	;# 
   150     0099                     	;# 
   151     009A                     	;# 
   152     009B                     	;# 
   153     009B                     	;# 
   154     009C                     	;# 
   155     009D                     	;# 
   156     009E                     	;# 
   157     010C                     	;# 
   158     010D                     	;# 
   159     010E                     	;# 
   160     0110                     	;# 
   161     0111                     	;# 
   162     0112                     	;# 
   163     0113                     	;# 
   164     0114                     	;# 
   165     0115                     	;# 
   166     0116                     	;# 
   167     0117                     	;# 
   168     0118                     	;# 
   169     0119                     	;# 
   170     011A                     	;# 
   171     011B                     	;# 
   172     011D                     	;# 
   173     018C                     	;# 
   174     018D                     	;# 
   175     0191                     	;# 
   176     0191                     	;# 
   177     0192                     	;# 
   178     0193                     	;# 
   179     0193                     	;# 
   180     0193                     	;# 
   181     0194                     	;# 
   182     0195                     	;# 
   183     0196                     	;# 
   184     0199                     	;# 
   185     019A                     	;# 
   186     019B                     	;# 
   187     019B                     	;# 
   188     019B                     	;# 
   189     019B                     	;# 
   190     019C                     	;# 
   191     019C                     	;# 
   192     019D                     	;# 
   193     019E                     	;# 
   194     019F                     	;# 
   195     020D                     	;# 
   196     0210                     	;# 
   197     0211                     	;# 
   198     0212                     	;# 
   199     0213                     	;# 
   200     0214                     	;# 
   201     0215                     	;# 
   202     0215                     	;# 
   203     0216                     	;# 
   204     0217                     	;# 
   205     0291                     	;# 
   206     0291                     	;# 
   207     0292                     	;# 
   208     0293                     	;# 
   209     0294                     	;# 
   210     0295                     	;# 
   211     0295                     	;# 
   212     0296                     	;# 
   213     0298                     	;# 
   214     0298                     	;# 
   215     0299                     	;# 
   216     029A                     	;# 
   217     029B                     	;# 
   218     029C                     	;# 
   219     029C                     	;# 
   220     029D                     	;# 
   221     029E                     	;# 
   222     029F                     	;# 
   223     0311                     	;# 
   224     0311                     	;# 
   225     0312                     	;# 
   226     0313                     	;# 
   227     0314                     	;# 
   228     0315                     	;# 
   229     0315                     	;# 
   230     0316                     	;# 
   231     0318                     	;# 
   232     0318                     	;# 
   233     0319                     	;# 
   234     031A                     	;# 
   235     031C                     	;# 
   236     031C                     	;# 
   237     031D                     	;# 
   238     031E                     	;# 
   239     0394                     	;# 
   240     0395                     	;# 
   241     0396                     	;# 
   242     0415                     	;# 
   243     0416                     	;# 
   244     0417                     	;# 
   245     041C                     	;# 
   246     041D                     	;# 
   247     041E                     	;# 
   248     0791                     	;# 
   249     0792                     	;# 
   250     0793                     	;# 
   251     0794                     	;# 
   252     0795                     	;# 
   253     0798                     	;# 
   254     0799                     	;# 
   255     07A0                     	;# 
   256     07A1                     	;# 
   257     07A3                     	;# 
   258     07A4                     	;# 
   259     07A6                     	;# 
   260     07A7                     	;# 
   261     07A9                     	;# 
   262     07AA                     	;# 
   263     0FE4                     	;# 
   264     0FE5                     	;# 
   265     0FE6                     	;# 
   266     0FE7                     	;# 
   267     0FE8                     	;# 
   268     0FE9                     	;# 
   269     0FEA                     	;# 
   270     0FEB                     	;# 
   271     0FED                     	;# 
   272     0FEE                     	;# 
   273     0FEF                     	;# 
   274     0000                     	;# 
   275     0001                     	;# 
   276     0002                     	;# 
   277     0003                     	;# 
   278     0004                     	;# 
   279     0005                     	;# 
   280     0006                     	;# 
   281     0007                     	;# 
   282     0008                     	;# 
   283     0009                     	;# 
   284     000A                     	;# 
   285     000B                     	;# 
   286     000C                     	;# 
   287     000D                     	;# 
   288     000E                     	;# 
   289     0010                     	;# 
   290     0011                     	;# 
   291     0012                     	;# 
   292     0013                     	;# 
   293     0015                     	;# 
   294     0016                     	;# 
   295     0016                     	;# 
   296     0017                     	;# 
   297     0018                     	;# 
   298     0019                     	;# 
   299     001A                     	;# 
   300     001B                     	;# 
   301     001C                     	;# 
   302     001E                     	;# 
   303     001F                     	;# 
   304     008C                     	;# 
   305     008D                     	;# 
   306     008E                     	;# 
   307     0090                     	;# 
   308     0091                     	;# 
   309     0092                     	;# 
   310     0093                     	;# 
   311     0095                     	;# 
   312     0096                     	;# 
   313     0097                     	;# 
   314     0098                     	;# 
   315     0099                     	;# 
   316     009A                     	;# 
   317     009B                     	;# 
   318     009B                     	;# 
   319     009C                     	;# 
   320     009D                     	;# 
   321     009E                     	;# 
   322     010C                     	;# 
   323     010D                     	;# 
   324     010E                     	;# 
   325     0110                     	;# 
   326     0111                     	;# 
   327     0112                     	;# 
   328     0113                     	;# 
   329     0114                     	;# 
   330     0115                     	;# 
   331     0116                     	;# 
   332     0117                     	;# 
   333     0118                     	;# 
   334     0119                     	;# 
   335     011A                     	;# 
   336     011B                     	;# 
   337     011D                     	;# 
   338     018C                     	;# 
   339     018D                     	;# 
   340     0191                     	;# 
   341     0191                     	;# 
   342     0192                     	;# 
   343     0193                     	;# 
   344     0193                     	;# 
   345     0193                     	;# 
   346     0194                     	;# 
   347     0195                     	;# 
   348     0196                     	;# 
   349     0199                     	;# 
   350     019A                     	;# 
   351     019B                     	;# 
   352     019B                     	;# 
   353     019B                     	;# 
   354     019B                     	;# 
   355     019C                     	;# 
   356     019C                     	;# 
   357     019D                     	;# 
   358     019E                     	;# 
   359     019F                     	;# 
   360     020D                     	;# 
   361     0210                     	;# 
   362     0211                     	;# 
   363     0212                     	;# 
   364     0213                     	;# 
   365     0214                     	;# 
   366     0215                     	;# 
   367     0215                     	;# 
   368     0216                     	;# 
   369     0217                     	;# 
   370     0291                     	;# 
   371     0291                     	;# 
   372     0292                     	;# 
   373     0293                     	;# 
   374     0294                     	;# 
   375     0295                     	;# 
   376     0295                     	;# 
   377     0296                     	;# 
   378     0298                     	;# 
   379     0298                     	;# 
   380     0299                     	;# 
   381     029A                     	;# 
   382     029B                     	;# 
   383     029C                     	;# 
   384     029C                     	;# 
   385     029D                     	;# 
   386     029E                     	;# 
   387     029F                     	;# 
   388     0311                     	;# 
   389     0311                     	;# 
   390     0312                     	;# 
   391     0313                     	;# 
   392     0314                     	;# 
   393     0315                     	;# 
   394     0315                     	;# 
   395     0316                     	;# 
   396     0318                     	;# 
   397     0318                     	;# 
   398     0319                     	;# 
   399     031A                     	;# 
   400     031C                     	;# 
   401     031C                     	;# 
   402     031D                     	;# 
   403     031E                     	;# 
   404     0394                     	;# 
   405     0395                     	;# 
   406     0396                     	;# 
   407     0415                     	;# 
   408     0416                     	;# 
   409     0417                     	;# 
   410     041C                     	;# 
   411     041D                     	;# 
   412     041E                     	;# 
   413     0791                     	;# 
   414     0792                     	;# 
   415     0793                     	;# 
   416     0794                     	;# 
   417     0795                     	;# 
   418     0798                     	;# 
   419     0799                     	;# 
   420     07A0                     	;# 
   421     07A1                     	;# 
   422     07A3                     	;# 
   423     07A4                     	;# 
   424     07A6                     	;# 
   425     07A7                     	;# 
   426     07A9                     	;# 
   427     07AA                     	;# 
   428     0FE4                     	;# 
   429     0FE5                     	;# 
   430     0FE6                     	;# 
   431     0FE7                     	;# 
   432     0FE8                     	;# 
   433     0FE9                     	;# 
   434     0FEA                     	;# 
   435     0FEB                     	;# 
   436     0FED                     	;# 
   437     0FEE                     	;# 
   438     0FEF                     	;# 
   439     0000                     	;# 
   440     0001                     	;# 
   441     0002                     	;# 
   442     0003                     	;# 
   443     0004                     	;# 
   444     0005                     	;# 
   445     0006                     	;# 
   446     0007                     	;# 
   447     0008                     	;# 
   448     0009                     	;# 
   449     000A                     	;# 
   450     000B                     	;# 
   451     000C                     	;# 
   452     000D                     	;# 
   453     000E                     	;# 
   454     0010                     	;# 
   455     0011                     	;# 
   456     0012                     	;# 
   457     0013                     	;# 
   458     0015                     	;# 
   459     0016                     	;# 
   460     0016                     	;# 
   461     0017                     	;# 
   462     0018                     	;# 
   463     0019                     	;# 
   464     001A                     	;# 
   465     001B                     	;# 
   466     001C                     	;# 
   467     001E                     	;# 
   468     001F                     	;# 
   469     008C                     	;# 
   470     008D                     	;# 
   471     008E                     	;# 
   472     0090                     	;# 
   473     0091                     	;# 
   474     0092                     	;# 
   475     0093                     	;# 
   476     0095                     	;# 
   477     0096                     	;# 
   478     0097                     	;# 
   479     0098                     	;# 
   480     0099                     	;# 
   481     009A                     	;# 
   482     009B                     	;# 
   483     009B                     	;# 
   484     009C                     	;# 
   485     009D                     	;# 
   486     009E                     	;# 
   487     010C                     	;# 
   488     010D                     	;# 
   489     010E                     	;# 
   490     0110                     	;# 
   491     0111                     	;# 
   492     0112                     	;# 
   493     0113                     	;# 
   494     0114                     	;# 
   495     0115                     	;# 
   496     0116                     	;# 
   497     0117                     	;# 
   498     0118                     	;# 
   499     0119                     	;# 
   500     011A                     	;# 
   501     011B                     	;# 
   502     011D                     	;# 
   503     018C                     	;# 
   504     018D                     	;# 
   505     0191                     	;# 
   506     0191                     	;# 
   507     0192                     	;# 
   508     0193                     	;# 
   509     0193                     	;# 
   510     0193                     	;# 
   511     0194                     	;# 
   512     0195                     	;# 
   513     0196                     	;# 
   514     0199                     	;# 
   515     019A                     	;# 
   516     019B                     	;# 
   517     019B                     	;# 
   518     019B                     	;# 
   519     019B                     	;# 
   520     019C                     	;# 
   521     019C                     	;# 
   522     019D                     	;# 
   523     019E                     	;# 
   524     019F                     	;# 
   525     020D                     	;# 
   526     0210                     	;# 
   527     0211                     	;# 
   528     0212                     	;# 
   529     0213                     	;# 
   530     0214                     	;# 
   531     0215                     	;# 
   532     0215                     	;# 
   533     0216                     	;# 
   534     0217                     	;# 
   535     0291                     	;# 
   536     0291                     	;# 
   537     0292                     	;# 
   538     0293                     	;# 
   539     0294                     	;# 
   540     0295                     	;# 
   541     0295                     	;# 
   542     0296                     	;# 
   543     0298                     	;# 
   544     0298                     	;# 
   545     0299                     	;# 
   546     029A                     	;# 
   547     029B                     	;# 
   548     029C                     	;# 
   549     029C                     	;# 
   550     029D                     	;# 
   551     029E                     	;# 
   552     029F                     	;# 
   553     0311                     	;# 
   554     0311                     	;# 
   555     0312                     	;# 
   556     0313                     	;# 
   557     0314                     	;# 
   558     0315                     	;# 
   559     0315                     	;# 
   560     0316                     	;# 
   561     0318                     	;# 
   562     0318                     	;# 
   563     0319                     	;# 
   564     031A                     	;# 
   565     031C                     	;# 
   566     031C                     	;# 
   567     031D                     	;# 
   568     031E                     	;# 
   569     0394                     	;# 
   570     0395                     	;# 
   571     0396                     	;# 
   572     0415                     	;# 
   573     0416                     	;# 
   574     0417                     	;# 
   575     041C                     	;# 
   576     041D                     	;# 
   577     041E                     	;# 
   578     0791                     	;# 
   579     0792                     	;# 
   580     0793                     	;# 
   581     0794                     	;# 
   582     0795                     	;# 
   583     0798                     	;# 
   584     0799                     	;# 
   585     07A0                     	;# 
   586     07A1                     	;# 
   587     07A3                     	;# 
   588     07A4                     	;# 
   589     07A6                     	;# 
   590     07A7                     	;# 
   591     07A9                     	;# 
   592     07AA                     	;# 
   593     0FE4                     	;# 
   594     0FE5                     	;# 
   595     0FE6                     	;# 
   596     0FE7                     	;# 
   597     0FE8                     	;# 
   598     0FE9                     	;# 
   599     0FEA                     	;# 
   600     0FEB                     	;# 
   601     0FED                     	;# 
   602     0FEE                     	;# 
   603     0FEF                     	;# 
   604     0000                     	;# 
   605     0001                     	;# 
   606     0002                     	;# 
   607     0003                     	;# 
   608     0004                     	;# 
   609     0005                     	;# 
   610     0006                     	;# 
   611     0007                     	;# 
   612     0008                     	;# 
   613     0009                     	;# 
   614     000A                     	;# 
   615     000B                     	;# 
   616     000C                     	;# 
   617     000D                     	;# 
   618     000E                     	;# 
   619     0010                     	;# 
   620     0011                     	;# 
   621     0012                     	;# 
   622     0013                     	;# 
   623     0015                     	;# 
   624     0016                     	;# 
   625     0016                     	;# 
   626     0017                     	;# 
   627     0018                     	;# 
   628     0019                     	;# 
   629     001A                     	;# 
   630     001B                     	;# 
   631     001C                     	;# 
   632     001E                     	;# 
   633     001F                     	;# 
   634     008C                     	;# 
   635     008D                     	;# 
   636     008E                     	;# 
   637     0090                     	;# 
   638     0091                     	;# 
   639     0092                     	;# 
   640     0093                     	;# 
   641     0095                     	;# 
   642     0096                     	;# 
   643     0097                     	;# 
   644     0098                     	;# 
   645     0099                     	;# 
   646     009A                     	;# 
   647     009B                     	;# 
   648     009B                     	;# 
   649     009C                     	;# 
   650     009D                     	;# 
   651     009E                     	;# 
   652     010C                     	;# 
   653     010D                     	;# 
   654     010E                     	;# 
   655     0110                     	;# 
   656     0111                     	;# 
   657     0112                     	;# 
   658     0113                     	;# 
   659     0114                     	;# 
   660     0115                     	;# 
   661     0116                     	;# 
   662     0117                     	;# 
   663     0118                     	;# 
   664     0119                     	;# 
   665     011A                     	;# 
   666     011B                     	;# 
   667     011D                     	;# 
   668     018C                     	;# 
   669     018D                     	;# 
   670     0191                     	;# 
   671     0191                     	;# 
   672     0192                     	;# 
   673     0193                     	;# 
   674     0193                     	;# 
   675     0193                     	;# 
   676     0194                     	;# 
   677     0195                     	;# 
   678     0196                     	;# 
   679     0199                     	;# 
   680     019A                     	;# 
   681     019B                     	;# 
   682     019B                     	;# 
   683     019B                     	;# 
   684     019B                     	;# 
   685     019C                     	;# 
   686     019C                     	;# 
   687     019D                     	;# 
   688     019E                     	;# 
   689     019F                     	;# 
   690     020D                     	;# 
   691     0210                     	;# 
   692     0211                     	;# 
   693     0212                     	;# 
   694     0213                     	;# 
   695     0214                     	;# 
   696     0215                     	;# 
   697     0215                     	;# 
   698     0216                     	;# 
   699     0217                     	;# 
   700     0291                     	;# 
   701     0291                     	;# 
   702     0292                     	;# 
   703     0293                     	;# 
   704     0294                     	;# 
   705     0295                     	;# 
   706     0295                     	;# 
   707     0296                     	;# 
   708     0298                     	;# 
   709     0298                     	;# 
   710     0299                     	;# 
   711     029A                     	;# 
   712     029B                     	;# 
   713     029C                     	;# 
   714     029C                     	;# 
   715     029D                     	;# 
   716     029E                     	;# 
   717     029F                     	;# 
   718     0311                     	;# 
   719     0311                     	;# 
   720     0312                     	;# 
   721     0313                     	;# 
   722     0314                     	;# 
   723     0315                     	;# 
   724     0315                     	;# 
   725     0316                     	;# 
   726     0318                     	;# 
   727     0318                     	;# 
   728     0319                     	;# 
   729     031A                     	;# 
   730     031C                     	;# 
   731     031C                     	;# 
   732     031D                     	;# 
   733     031E                     	;# 
   734     0394                     	;# 
   735     0395                     	;# 
   736     0396                     	;# 
   737     0415                     	;# 
   738     0416                     	;# 
   739     0417                     	;# 
   740     041C                     	;# 
   741     041D                     	;# 
   742     041E                     	;# 
   743     0791                     	;# 
   744     0792                     	;# 
   745     0793                     	;# 
   746     0794                     	;# 
   747     0795                     	;# 
   748     0798                     	;# 
   749     0799                     	;# 
   750     07A0                     	;# 
   751     07A1                     	;# 
   752     07A3                     	;# 
   753     07A4                     	;# 
   754     07A6                     	;# 
   755     07A7                     	;# 
   756     07A9                     	;# 
   757     07AA                     	;# 
   758     0FE4                     	;# 
   759     0FE5                     	;# 
   760     0FE6                     	;# 
   761     0FE7                     	;# 
   762     0FE8                     	;# 
   763     0FE9                     	;# 
   764     0FEA                     	;# 
   765     0FEB                     	;# 
   766     0FED                     	;# 
   767     0FEE                     	;# 
   768     0FEF                     	;# 
   769     0000                     	;# 
   770     0001                     	;# 
   771     0002                     	;# 
   772     0003                     	;# 
   773     0004                     	;# 
   774     0005                     	;# 
   775     0006                     	;# 
   776     0007                     	;# 
   777     0008                     	;# 
   778     0009                     	;# 
   779     000A                     	;# 
   780     000B                     	;# 
   781     000C                     	;# 
   782     000D                     	;# 
   783     000E                     	;# 
   784     0010                     	;# 
   785     0011                     	;# 
   786     0012                     	;# 
   787     0013                     	;# 
   788     0015                     	;# 
   789     0016                     	;# 
   790     0016                     	;# 
   791     0017                     	;# 
   792     0018                     	;# 
   793     0019                     	;# 
   794     001A                     	;# 
   795     001B                     	;# 
   796     001C                     	;# 
   797     001E                     	;# 
   798     001F                     	;# 
   799     008C                     	;# 
   800     008D                     	;# 
   801     008E                     	;# 
   802     0090                     	;# 
   803     0091                     	;# 
   804     0092                     	;# 
   805     0093                     	;# 
   806     0095                     	;# 
   807     0096                     	;# 
   808     0097                     	;# 
   809     0098                     	;# 
   810     0099                     	;# 
   811     009A                     	;# 
   812     009B                     	;# 
   813     009B                     	;# 
   814     009C                     	;# 
   815     009D                     	;# 
   816     009E                     	;# 
   817     010C                     	;# 
   818     010D                     	;# 
   819     010E                     	;# 
   820     0110                     	;# 
   821     0111                     	;# 
   822     0112                     	;# 
   823     0113                     	;# 
   824     0114                     	;# 
   825     0115                     	;# 
   826     0116                     	;# 
   827     0117                     	;# 
   828     0118                     	;# 
   829     0119                     	;# 
   830     011A                     	;# 
   831     011B                     	;# 
   832     011D                     	;# 
   833     018C                     	;# 
   834     018D                     	;# 
   835     0191                     	;# 
   836     0191                     	;# 
   837     0192                     	;# 
   838     0193                     	;# 
   839     0193                     	;# 
   840     0193                     	;# 
   841     0194                     	;# 
   842     0195                     	;# 
   843     0196                     	;# 
   844     0199                     	;# 
   845     019A                     	;# 
   846     019B                     	;# 
   847     019B                     	;# 
   848     019B                     	;# 
   849     019B                     	;# 
   850     019C                     	;# 
   851     019C                     	;# 
   852     019D                     	;# 
   853     019E                     	;# 
   854     019F                     	;# 
   855     020D                     	;# 
   856     0210                     	;# 
   857     0211                     	;# 
   858     0212                     	;# 
   859     0213                     	;# 
   860     0214                     	;# 
   861     0215                     	;# 
   862     0215                     	;# 
   863     0216                     	;# 
   864     0217                     	;# 
   865     0291                     	;# 
   866     0291                     	;# 
   867     0292                     	;# 
   868     0293                     	;# 
   869     0294                     	;# 
   870     0295                     	;# 
   871     0295                     	;# 
   872     0296                     	;# 
   873     0298                     	;# 
   874     0298                     	;# 
   875     0299                     	;# 
   876     029A                     	;# 
   877     029B                     	;# 
   878     029C                     	;# 
   879     029C                     	;# 
   880     029D                     	;# 
   881     029E                     	;# 
   882     029F                     	;# 
   883     0311                     	;# 
   884     0311                     	;# 
   885     0312                     	;# 
   886     0313                     	;# 
   887     0314                     	;# 
   888     0315                     	;# 
   889     0315                     	;# 
   890     0316                     	;# 
   891     0318                     	;# 
   892     0318                     	;# 
   893     0319                     	;# 
   894     031A                     	;# 
   895     031C                     	;# 
   896     031C                     	;# 
   897     031D                     	;# 
   898     031E                     	;# 
   899     0394                     	;# 
   900     0395                     	;# 
   901     0396                     	;# 
   902     0415                     	;# 
   903     0416                     	;# 
   904     0417                     	;# 
   905     041C                     	;# 
   906     041D                     	;# 
   907     041E                     	;# 
   908     0791                     	;# 
   909     0792                     	;# 
   910     0793                     	;# 
   911     0794                     	;# 
   912     0795                     	;# 
   913     0798                     	;# 
   914     0799                     	;# 
   915     07A0                     	;# 
   916     07A1                     	;# 
   917     07A3                     	;# 
   918     07A4                     	;# 
   919     07A6                     	;# 
   920     07A7                     	;# 
   921     07A9                     	;# 
   922     07AA                     	;# 
   923     0FE4                     	;# 
   924     0FE5                     	;# 
   925     0FE6                     	;# 
   926     0FE7                     	;# 
   927     0FE8                     	;# 
   928     0FE9                     	;# 
   929     0FEA                     	;# 
   930     0FEB                     	;# 
   931     0FED                     	;# 
   932     0FEE                     	;# 
   933     0FEF                     	;# 
   934     0000                     	;# 
   935     0001                     	;# 
   936     0002                     	;# 
   937     0003                     	;# 
   938     0004                     	;# 
   939     0005                     	;# 
   940     0006                     	;# 
   941     0007                     	;# 
   942     0008                     	;# 
   943     0009                     	;# 
   944     000A                     	;# 
   945     000B                     	;# 
   946     000C                     	;# 
   947     000D                     	;# 
   948     000E                     	;# 
   949     0010                     	;# 
   950     0011                     	;# 
   951     0012                     	;# 
   952     0013                     	;# 
   953     0015                     	;# 
   954     0016                     	;# 
   955     0016                     	;# 
   956     0017                     	;# 
   957     0018                     	;# 
   958     0019                     	;# 
   959     001A                     	;# 
   960     001B                     	;# 
   961     001C                     	;# 
   962     001E                     	;# 
   963     001F                     	;# 
   964     008C                     	;# 
   965     008D                     	;# 
   966     008E                     	;# 
   967     0090                     	;# 
   968     0091                     	;# 
   969     0092                     	;# 
   970     0093                     	;# 
   971     0095                     	;# 
   972     0096                     	;# 
   973     0097                     	;# 
   974     0098                     	;# 
   975     0099                     	;# 
   976     009A                     	;# 
   977     009B                     	;# 
   978     009B                     	;# 
   979     009C                     	;# 
   980     009D                     	;# 
   981     009E                     	;# 
   982     010C                     	;# 
   983     010D                     	;# 
   984     010E                     	;# 
   985     0110                     	;# 
   986     0111                     	;# 
   987     0112                     	;# 
   988     0113                     	;# 
   989     0114                     	;# 
   990     0115                     	;# 
   991     0116                     	;# 
   992     0117                     	;# 
   993     0118                     	;# 
   994     0119                     	;# 
   995     011A                     	;# 
   996     011B                     	;# 
   997     011D                     	;# 
   998     018C                     	;# 
   999     018D                     	;# 
  1000     0191                     	;# 
  1001     0191                     	;# 
  1002     0192                     	;# 
  1003     0193                     	;# 
  1004     0193                     	;# 
  1005     0193                     	;# 
  1006     0194                     	;# 
  1007     0195                     	;# 
  1008     0196                     	;# 
  1009     0199                     	;# 
  1010     019A                     	;# 
  1011     019B                     	;# 
  1012     019B                     	;# 
  1013     019B                     	;# 
  1014     019B                     	;# 
  1015     019C                     	;# 
  1016     019C                     	;# 
  1017     019D                     	;# 
  1018     019E                     	;# 
  1019     019F                     	;# 
  1020     020D                     	;# 
  1021     0210                     	;# 
  1022     0211                     	;# 
  1023     0212                     	;# 
  1024     0213                     	;# 
  1025     0214                     	;# 
  1026     0215                     	;# 
  1027     0215                     	;# 
  1028     0216                     	;# 
  1029     0217                     	;# 
  1030     0291                     	;# 
  1031     0291                     	;# 
  1032     0292                     	;# 
  1033     0293                     	;# 
  1034     0294                     	;# 
  1035     0295                     	;# 
  1036     0295                     	;# 
  1037     0296                     	;# 
  1038     0298                     	;# 
  1039     0298                     	;# 
  1040     0299                     	;# 
  1041     029A                     	;# 
  1042     029B                     	;# 
  1043     029C                     	;# 
  1044     029C                     	;# 
  1045     029D                     	;# 
  1046     029E                     	;# 
  1047     029F                     	;# 
  1048     0311                     	;# 
  1049     0311                     	;# 
  1050     0312                     	;# 
  1051     0313                     	;# 
  1052     0314                     	;# 
  1053     0315                     	;# 
  1054     0315                     	;# 
  1055     0316                     	;# 
  1056     0318                     	;# 
  1057     0318                     	;# 
  1058     0319                     	;# 
  1059     031A                     	;# 
  1060     031C                     	;# 
  1061     031C                     	;# 
  1062     031D                     	;# 
  1063     031E                     	;# 
  1064     0394                     	;# 
  1065     0395                     	;# 
  1066     0396                     	;# 
  1067     0415                     	;# 
  1068     0416                     	;# 
  1069     0417                     	;# 
  1070     041C                     	;# 
  1071     041D                     	;# 
  1072     041E                     	;# 
  1073     0791                     	;# 
  1074     0792                     	;# 
  1075     0793                     	;# 
  1076     0794                     	;# 
  1077     0795                     	;# 
  1078     0798                     	;# 
  1079     0799                     	;# 
  1080     07A0                     	;# 
  1081     07A1                     	;# 
  1082     07A3                     	;# 
  1083     07A4                     	;# 
  1084     07A6                     	;# 
  1085     07A7                     	;# 
  1086     07A9                     	;# 
  1087     07AA                     	;# 
  1088     0FE4                     	;# 
  1089     0FE5                     	;# 
  1090     0FE6                     	;# 
  1091     0FE7                     	;# 
  1092     0FE8                     	;# 
  1093     0FE9                     	;# 
  1094     0FEA                     	;# 
  1095     0FEB                     	;# 
  1096     0FED                     	;# 
  1097     0FEE                     	;# 
  1098     0FEF                     	;# 
  1099     0000                     	;# 
  1100     0001                     	;# 
  1101     0002                     	;# 
  1102     0003                     	;# 
  1103     0004                     	;# 
  1104     0005                     	;# 
  1105     0006                     	;# 
  1106     0007                     	;# 
  1107     0008                     	;# 
  1108     0009                     	;# 
  1109     000A                     	;# 
  1110     000B                     	;# 
  1111     000C                     	;# 
  1112     000D                     	;# 
  1113     000E                     	;# 
  1114     0010                     	;# 
  1115     0011                     	;# 
  1116     0012                     	;# 
  1117     0013                     	;# 
  1118     0015                     	;# 
  1119     0016                     	;# 
  1120     0016                     	;# 
  1121     0017                     	;# 
  1122     0018                     	;# 
  1123     0019                     	;# 
  1124     001A                     	;# 
  1125     001B                     	;# 
  1126     001C                     	;# 
  1127     001E                     	;# 
  1128     001F                     	;# 
  1129     008C                     	;# 
  1130     008D                     	;# 
  1131     008E                     	;# 
  1132     0090                     	;# 
  1133     0091                     	;# 
  1134     0092                     	;# 
  1135     0093                     	;# 
  1136     0095                     	;# 
  1137     0096                     	;# 
  1138     0097                     	;# 
  1139     0098                     	;# 
  1140     0099                     	;# 
  1141     009A                     	;# 
  1142     009B                     	;# 
  1143     009B                     	;# 
  1144     009C                     	;# 
  1145     009D                     	;# 
  1146     009E                     	;# 
  1147     010C                     	;# 
  1148     010D                     	;# 
  1149     010E                     	;# 
  1150     0110                     	;# 
  1151     0111                     	;# 
  1152     0112                     	;# 
  1153     0113                     	;# 
  1154     0114                     	;# 
  1155     0115                     	;# 
  1156     0116                     	;# 
  1157     0117                     	;# 
  1158     0118                     	;# 
  1159     0119                     	;# 
  1160     011A                     	;# 
  1161     011B                     	;# 
  1162     011D                     	;# 
  1163     018C                     	;# 
  1164     018D                     	;# 
  1165     0191                     	;# 
  1166     0191                     	;# 
  1167     0192                     	;# 
  1168     0193                     	;# 
  1169     0193                     	;# 
  1170     0193                     	;# 
  1171     0194                     	;# 
  1172     0195                     	;# 
  1173     0196                     	;# 
  1174     0199                     	;# 
  1175     019A                     	;# 
  1176     019B                     	;# 
  1177     019B                     	;# 
  1178     019B                     	;# 
  1179     019B                     	;# 
  1180     019C                     	;# 
  1181     019C                     	;# 
  1182     019D                     	;# 
  1183     019E                     	;# 
  1184     019F                     	;# 
  1185     020D                     	;# 
  1186     0210                     	;# 
  1187     0211                     	;# 
  1188     0212                     	;# 
  1189     0213                     	;# 
  1190     0214                     	;# 
  1191     0215                     	;# 
  1192     0215                     	;# 
  1193     0216                     	;# 
  1194     0217                     	;# 
  1195     0291                     	;# 
  1196     0291                     	;# 
  1197     0292                     	;# 
  1198     0293                     	;# 
  1199     0294                     	;# 
  1200     0295                     	;# 
  1201     0295                     	;# 
  1202     0296                     	;# 
  1203     0298                     	;# 
  1204     0298                     	;# 
  1205     0299                     	;# 
  1206     029A                     	;# 
  1207     029B                     	;# 
  1208     029C                     	;# 
  1209     029C                     	;# 
  1210     029D                     	;# 
  1211     029E                     	;# 
  1212     029F                     	;# 
  1213     0311                     	;# 
  1214     0311                     	;# 
  1215     0312                     	;# 
  1216     0313                     	;# 
  1217     0314                     	;# 
  1218     0315                     	;# 
  1219     0315                     	;# 
  1220     0316                     	;# 
  1221     0318                     	;# 
  1222     0318                     	;# 
  1223     0319                     	;# 
  1224     031A                     	;# 
  1225     031C                     	;# 
  1226     031C                     	;# 
  1227     031D                     	;# 
  1228     031E                     	;# 
  1229     0394                     	;# 
  1230     0395                     	;# 
  1231     0396                     	;# 
  1232     0415                     	;# 
  1233     0416                     	;# 
  1234     0417                     	;# 
  1235     041C                     	;# 
  1236     041D                     	;# 
  1237     041E                     	;# 
  1238     0791                     	;# 
  1239     0792                     	;# 
  1240     0793                     	;# 
  1241     0794                     	;# 
  1242     0795                     	;# 
  1243     0798                     	;# 
  1244     0799                     	;# 
  1245     07A0                     	;# 
  1246     07A1                     	;# 
  1247     07A3                     	;# 
  1248     07A4                     	;# 
  1249     07A6                     	;# 
  1250     07A7                     	;# 
  1251     07A9                     	;# 
  1252     07AA                     	;# 
  1253     0FE4                     	;# 
  1254     0FE5                     	;# 
  1255     0FE6                     	;# 
  1256     0FE7                     	;# 
  1257     0FE8                     	;# 
  1258     0FE9                     	;# 
  1259     0FEA                     	;# 
  1260     0FEB                     	;# 
  1261     0FED                     	;# 
  1262     0FEE                     	;# 
  1263     0FEF                     	;# 
  1264     0000                     	;# 
  1265     0001                     	;# 
  1266     0002                     	;# 
  1267     0003                     	;# 
  1268     0004                     	;# 
  1269     0005                     	;# 
  1270     0006                     	;# 
  1271     0007                     	;# 
  1272     0008                     	;# 
  1273     0009                     	;# 
  1274     000A                     	;# 
  1275     000B                     	;# 
  1276     000C                     	;# 
  1277     000D                     	;# 
  1278     000E                     	;# 
  1279     0010                     	;# 
  1280     0011                     	;# 
  1281     0012                     	;# 
  1282     0013                     	;# 
  1283     0015                     	;# 
  1284     0016                     	;# 
  1285     0016                     	;# 
  1286     0017                     	;# 
  1287     0018                     	;# 
  1288     0019                     	;# 
  1289     001A                     	;# 
  1290     001B                     	;# 
  1291     001C                     	;# 
  1292     001E                     	;# 
  1293     001F                     	;# 
  1294     008C                     	;# 
  1295     008D                     	;# 
  1296     008E                     	;# 
  1297     0090                     	;# 
  1298     0091                     	;# 
  1299     0092                     	;# 
  1300     0093                     	;# 
  1301     0095                     	;# 
  1302     0096                     	;# 
  1303     0097                     	;# 
  1304     0098                     	;# 
  1305     0099                     	;# 
  1306     009A                     	;# 
  1307     009B                     	;# 
  1308     009B                     	;# 
  1309     009C                     	;# 
  1310     009D                     	;# 
  1311     009E                     	;# 
  1312     010C                     	;# 
  1313     010D                     	;# 
  1314     010E                     	;# 
  1315     0110                     	;# 
  1316     0111                     	;# 
  1317     0112                     	;# 
  1318     0113                     	;# 
  1319     0114                     	;# 
  1320     0115                     	;# 
  1321     0116                     	;# 
  1322     0117                     	;# 
  1323     0118                     	;# 
  1324     0119                     	;# 
  1325     011A                     	;# 
  1326     011B                     	;# 
  1327     011D                     	;# 
  1328     018C                     	;# 
  1329     018D                     	;# 
  1330     0191                     	;# 
  1331     0191                     	;# 
  1332     0192                     	;# 
  1333     0193                     	;# 
  1334     0193                     	;# 
  1335     0193                     	;# 
  1336     0194                     	;# 
  1337     0195                     	;# 
  1338     0196                     	;# 
  1339     0199                     	;# 
  1340     019A                     	;# 
  1341     019B                     	;# 
  1342     019B                     	;# 
  1343     019B                     	;# 
  1344     019B                     	;# 
  1345     019C                     	;# 
  1346     019C                     	;# 
  1347     019D                     	;# 
  1348     019E                     	;# 
  1349     019F                     	;# 
  1350     020D                     	;# 
  1351     0210                     	;# 
  1352     0211                     	;# 
  1353     0212                     	;# 
  1354     0213                     	;# 
  1355     0214                     	;# 
  1356     0215                     	;# 
  1357     0215                     	;# 
  1358     0216                     	;# 
  1359     0217                     	;# 
  1360     0291                     	;# 
  1361     0291                     	;# 
  1362     0292                     	;# 
  1363     0293                     	;# 
  1364     0294                     	;# 
  1365     0295                     	;# 
  1366     0295                     	;# 
  1367     0296                     	;# 
  1368     0298                     	;# 
  1369     0298                     	;# 
  1370     0299                     	;# 
  1371     029A                     	;# 
  1372     029B                     	;# 
  1373     029C                     	;# 
  1374     029C                     	;# 
  1375     029D                     	;# 
  1376     029E                     	;# 
  1377     029F                     	;# 
  1378     0311                     	;# 
  1379     0311                     	;# 
  1380     0312                     	;# 
  1381     0313                     	;# 
  1382     0314                     	;# 
  1383     0315                     	;# 
  1384     0315                     	;# 
  1385     0316                     	;# 
  1386     0318                     	;# 
  1387     0318                     	;# 
  1388     0319                     	;# 
  1389     031A                     	;# 
  1390     031C                     	;# 
  1391     031C                     	;# 
  1392     031D                     	;# 
  1393     031E                     	;# 
  1394     0394                     	;# 
  1395     0395                     	;# 
  1396     0396                     	;# 
  1397     0415                     	;# 
  1398     0416                     	;# 
  1399     0417                     	;# 
  1400     041C                     	;# 
  1401     041D                     	;# 
  1402     041E                     	;# 
  1403     0791                     	;# 
  1404     0792                     	;# 
  1405     0793                     	;# 
  1406     0794                     	;# 
  1407     0795                     	;# 
  1408     0798                     	;# 
  1409     0799                     	;# 
  1410     07A0                     	;# 
  1411     07A1                     	;# 
  1412     07A3                     	;# 
  1413     07A4                     	;# 
  1414     07A6                     	;# 
  1415     07A7                     	;# 
  1416     07A9                     	;# 
  1417     07AA                     	;# 
  1418     0FE4                     	;# 
  1419     0FE5                     	;# 
  1420     0FE6                     	;# 
  1421     0FE7                     	;# 
  1422     0FE8                     	;# 
  1423     0FE9                     	;# 
  1424     0FEA                     	;# 
  1425     0FEB                     	;# 
  1426     0FED                     	;# 
  1427     0FEE                     	;# 
  1428     0FEF                     	;# 
  1429     0000                     	;# 
  1430     0001                     	;# 
  1431     0002                     	;# 
  1432     0003                     	;# 
  1433     0004                     	;# 
  1434     0005                     	;# 
  1435     0006                     	;# 
  1436     0007                     	;# 
  1437     0008                     	;# 
  1438     0009                     	;# 
  1439     000A                     	;# 
  1440     000B                     	;# 
  1441     000C                     	;# 
  1442     000D                     	;# 
  1443     000E                     	;# 
  1444     0010                     	;# 
  1445     0011                     	;# 
  1446     0012                     	;# 
  1447     0013                     	;# 
  1448     0015                     	;# 
  1449     0016                     	;# 
  1450     0016                     	;# 
  1451     0017                     	;# 
  1452     0018                     	;# 
  1453     0019                     	;# 
  1454     001A                     	;# 
  1455     001B                     	;# 
  1456     001C                     	;# 
  1457     001E                     	;# 
  1458     001F                     	;# 
  1459     008C                     	;# 
  1460     008D                     	;# 
  1461     008E                     	;# 
  1462     0090                     	;# 
  1463     0091                     	;# 
  1464     0092                     	;# 
  1465     0093                     	;# 
  1466     0095                     	;# 
  1467     0096                     	;# 
  1468     0097                     	;# 
  1469     0098                     	;# 
  1470     0099                     	;# 
  1471     009A                     	;# 
  1472     009B                     	;# 
  1473     009B                     	;# 
  1474     009C                     	;# 
  1475     009D                     	;# 
  1476     009E                     	;# 
  1477     010C                     	;# 
  1478     010D                     	;# 
  1479     010E                     	;# 
  1480     0110                     	;# 
  1481     0111                     	;# 
  1482     0112                     	;# 
  1483     0113                     	;# 
  1484     0114                     	;# 
  1485     0115                     	;# 
  1486     0116                     	;# 
  1487     0117                     	;# 
  1488     0118                     	;# 
  1489     0119                     	;# 
  1490     011A                     	;# 
  1491     011B                     	;# 
  1492     011D                     	;# 
  1493     018C                     	;# 
  1494     018D                     	;# 
  1495     0191                     	;# 
  1496     0191                     	;# 
  1497     0192                     	;# 
  1498     0193                     	;# 
  1499     0193                     	;# 
  1500     0193                     	;# 
  1501     0194                     	;# 
  1502     0195                     	;# 
  1503     0196                     	;# 
  1504     0199                     	;# 
  1505     019A                     	;# 
  1506     019B                     	;# 
  1507     019B                     	;# 
  1508     019B                     	;# 
  1509     019B                     	;# 
  1510     019C                     	;# 
  1511     019C                     	;# 
  1512     019D                     	;# 
  1513     019E                     	;# 
  1514     019F                     	;# 
  1515     020D                     	;# 
  1516     0210                     	;# 
  1517     0211                     	;# 
  1518     0212                     	;# 
  1519     0213                     	;# 
  1520     0214                     	;# 
  1521     0215                     	;# 
  1522     0215                     	;# 
  1523     0216                     	;# 
  1524     0217                     	;# 
  1525     0291                     	;# 
  1526     0291                     	;# 
  1527     0292                     	;# 
  1528     0293                     	;# 
  1529     0294                     	;# 
  1530     0295                     	;# 
  1531     0295                     	;# 
  1532     0296                     	;# 
  1533     0298                     	;# 
  1534     0298                     	;# 
  1535     0299                     	;# 
  1536     029A                     	;# 
  1537     029B                     	;# 
  1538     029C                     	;# 
  1539     029C                     	;# 
  1540     029D                     	;# 
  1541     029E                     	;# 
  1542     029F                     	;# 
  1543     0311                     	;# 
  1544     0311                     	;# 
  1545     0312                     	;# 
  1546     0313                     	;# 
  1547     0314                     	;# 
  1548     0315                     	;# 
  1549     0315                     	;# 
  1550     0316                     	;# 
  1551     0318                     	;# 
  1552     0318                     	;# 
  1553     0319                     	;# 
  1554     031A                     	;# 
  1555     031C                     	;# 
  1556     031C                     	;# 
  1557     031D                     	;# 
  1558     031E                     	;# 
  1559     0394                     	;# 
  1560     0395                     	;# 
  1561     0396                     	;# 
  1562     0415                     	;# 
  1563     0416                     	;# 
  1564     0417                     	;# 
  1565     041C                     	;# 
  1566     041D                     	;# 
  1567     041E                     	;# 
  1568     0791                     	;# 
  1569     0792                     	;# 
  1570     0793                     	;# 
  1571     0794                     	;# 
  1572     0795                     	;# 
  1573     0798                     	;# 
  1574     0799                     	;# 
  1575     07A0                     	;# 
  1576     07A1                     	;# 
  1577     07A3                     	;# 
  1578     07A4                     	;# 
  1579     07A6                     	;# 
  1580     07A7                     	;# 
  1581     07A9                     	;# 
  1582     07AA                     	;# 
  1583     0FE4                     	;# 
  1584     0FE5                     	;# 
  1585     0FE6                     	;# 
  1586     0FE7                     	;# 
  1587     0FE8                     	;# 
  1588     0FE9                     	;# 
  1589     0FEA                     	;# 
  1590     0FEB                     	;# 
  1591     0FED                     	;# 
  1592     0FEE                     	;# 
  1593     0FEF                     	;# 
  1594     0000                     	;# 
  1595     0001                     	;# 
  1596     0002                     	;# 
  1597     0003                     	;# 
  1598     0004                     	;# 
  1599     0005                     	;# 
  1600     0006                     	;# 
  1601     0007                     	;# 
  1602     0008                     	;# 
  1603     0009                     	;# 
  1604     000A                     	;# 
  1605     000B                     	;# 
  1606     000C                     	;# 
  1607     000D                     	;# 
  1608     000E                     	;# 
  1609     0010                     	;# 
  1610     0011                     	;# 
  1611     0012                     	;# 
  1612     0013                     	;# 
  1613     0015                     	;# 
  1614     0016                     	;# 
  1615     0016                     	;# 
  1616     0017                     	;# 
  1617     0018                     	;# 
  1618     0019                     	;# 
  1619     001A                     	;# 
  1620     001B                     	;# 
  1621     001C                     	;# 
  1622     001E                     	;# 
  1623     001F                     	;# 
  1624     008C                     	;# 
  1625     008D                     	;# 
  1626     008E                     	;# 
  1627     0090                     	;# 
  1628     0091                     	;# 
  1629     0092                     	;# 
  1630     0093                     	;# 
  1631     0095                     	;# 
  1632     0096                     	;# 
  1633     0097                     	;# 
  1634     0098                     	;# 
  1635     0099                     	;# 
  1636     009A                     	;# 
  1637     009B                     	;# 
  1638     009B                     	;# 
  1639     009C                     	;# 
  1640     009D                     	;# 
  1641     009E                     	;# 
  1642     010C                     	;# 
  1643     010D                     	;# 
  1644     010E                     	;# 
  1645     0110                     	;# 
  1646     0111                     	;# 
  1647     0112                     	;# 
  1648     0113                     	;# 
  1649     0114                     	;# 
  1650     0115                     	;# 
  1651     0116                     	;# 
  1652     0117                     	;# 
  1653     0118                     	;# 
  1654     0119                     	;# 
  1655     011A                     	;# 
  1656     011B                     	;# 
  1657     011D                     	;# 
  1658     018C                     	;# 
  1659     018D                     	;# 
  1660     0191                     	;# 
  1661     0191                     	;# 
  1662     0192                     	;# 
  1663     0193                     	;# 
  1664     0193                     	;# 
  1665     0193                     	;# 
  1666     0194                     	;# 
  1667     0195                     	;# 
  1668     0196                     	;# 
  1669     0199                     	;# 
  1670     019A                     	;# 
  1671     019B                     	;# 
  1672     019B                     	;# 
  1673     019B                     	;# 
  1674     019B                     	;# 
  1675     019C                     	;# 
  1676     019C                     	;# 
  1677     019D                     	;# 
  1678     019E                     	;# 
  1679     019F                     	;# 
  1680     020D                     	;# 
  1681     0210                     	;# 
  1682     0211                     	;# 
  1683     0212                     	;# 
  1684     0213                     	;# 
  1685     0214                     	;# 
  1686     0215                     	;# 
  1687     0215                     	;# 
  1688     0216                     	;# 
  1689     0217                     	;# 
  1690     0291                     	;# 
  1691     0291                     	;# 
  1692     0292                     	;# 
  1693     0293                     	;# 
  1694     0294                     	;# 
  1695     0295                     	;# 
  1696     0295                     	;# 
  1697     0296                     	;# 
  1698     0298                     	;# 
  1699     0298                     	;# 
  1700     0299                     	;# 
  1701     029A                     	;# 
  1702     029B                     	;# 
  1703     029C                     	;# 
  1704     029C                     	;# 
  1705     029D                     	;# 
  1706     029E                     	;# 
  1707     029F                     	;# 
  1708     0311                     	;# 
  1709     0311                     	;# 
  1710     0312                     	;# 
  1711     0313                     	;# 
  1712     0314                     	;# 
  1713     0315                     	;# 
  1714     0315                     	;# 
  1715     0316                     	;# 
  1716     0318                     	;# 
  1717     0318                     	;# 
  1718     0319                     	;# 
  1719     031A                     	;# 
  1720     031C                     	;# 
  1721     031C                     	;# 
  1722     031D                     	;# 
  1723     031E                     	;# 
  1724     0394                     	;# 
  1725     0395                     	;# 
  1726     0396                     	;# 
  1727     0415                     	;# 
  1728     0416                     	;# 
  1729     0417                     	;# 
  1730     041C                     	;# 
  1731     041D                     	;# 
  1732     041E                     	;# 
  1733     0791                     	;# 
  1734     0792                     	;# 
  1735     0793                     	;# 
  1736     0794                     	;# 
  1737     0795                     	;# 
  1738     0798                     	;# 
  1739     0799                     	;# 
  1740     07A0                     	;# 
  1741     07A1                     	;# 
  1742     07A3                     	;# 
  1743     07A4                     	;# 
  1744     07A6                     	;# 
  1745     07A7                     	;# 
  1746     07A9                     	;# 
  1747     07AA                     	;# 
  1748     0FE4                     	;# 
  1749     0FE5                     	;# 
  1750     0FE6                     	;# 
  1751     0FE7                     	;# 
  1752     0FE8                     	;# 
  1753     0FE9                     	;# 
  1754     0FEA                     	;# 
  1755     0FEB                     	;# 
  1756     0FED                     	;# 
  1757     0FEE                     	;# 
  1758     0FEF                     	;# 
  1759     0000                     	;# 
  1760     0001                     	;# 
  1761     0002                     	;# 
  1762     0003                     	;# 
  1763     0004                     	;# 
  1764     0005                     	;# 
  1765     0006                     	;# 
  1766     0007                     	;# 
  1767     0008                     	;# 
  1768     0009                     	;# 
  1769     000A                     	;# 
  1770     000B                     	;# 
  1771     000C                     	;# 
  1772     000D                     	;# 
  1773     000E                     	;# 
  1774     0010                     	;# 
  1775     0011                     	;# 
  1776     0012                     	;# 
  1777     0013                     	;# 
  1778     0015                     	;# 
  1779     0016                     	;# 
  1780     0016                     	;# 
  1781     0017                     	;# 
  1782     0018                     	;# 
  1783     0019                     	;# 
  1784     001A                     	;# 
  1785     001B                     	;# 
  1786     001C                     	;# 
  1787     001E                     	;# 
  1788     001F                     	;# 
  1789     008C                     	;# 
  1790     008D                     	;# 
  1791     008E                     	;# 
  1792     0090                     	;# 
  1793     0091                     	;# 
  1794     0092                     	;# 
  1795     0093                     	;# 
  1796     0095                     	;# 
  1797     0096                     	;# 
  1798     0097                     	;# 
  1799     0098                     	;# 
  1800     0099                     	;# 
  1801     009A                     	;# 
  1802     009B                     	;# 
  1803     009B                     	;# 
  1804     009C                     	;# 
  1805     009D                     	;# 
  1806     009E                     	;# 
  1807     010C                     	;# 
  1808     010D                     	;# 
  1809     010E                     	;# 
  1810     0110                     	;# 
  1811     0111                     	;# 
  1812     0112                     	;# 
  1813     0113                     	;# 
  1814     0114                     	;# 
  1815     0115                     	;# 
  1816     0116                     	;# 
  1817     0117                     	;# 
  1818     0118                     	;# 
  1819     0119                     	;# 
  1820     011A                     	;# 
  1821     011B                     	;# 
  1822     011D                     	;# 
  1823     018C                     	;# 
  1824     018D                     	;# 
  1825     0191                     	;# 
  1826     0191                     	;# 
  1827     0192                     	;# 
  1828     0193                     	;# 
  1829     0193                     	;# 
  1830     0193                     	;# 
  1831     0194                     	;# 
  1832     0195                     	;# 
  1833     0196                     	;# 
  1834     0199                     	;# 
  1835     019A                     	;# 
  1836     019B                     	;# 
  1837     019B                     	;# 
  1838     019B                     	;# 
  1839     019B                     	;# 
  1840     019C                     	;# 
  1841     019C                     	;# 
  1842     019D                     	;# 
  1843     019E                     	;# 
  1844     019F                     	;# 
  1845     020D                     	;# 
  1846     0210                     	;# 
  1847     0211                     	;# 
  1848     0212                     	;# 
  1849     0213                     	;# 
  1850     0214                     	;# 
  1851     0215                     	;# 
  1852     0215                     	;# 
  1853     0216                     	;# 
  1854     0217                     	;# 
  1855     0291                     	;# 
  1856     0291                     	;# 
  1857     0292                     	;# 
  1858     0293                     	;# 
  1859     0294                     	;# 
  1860     0295                     	;# 
  1861     0295                     	;# 
  1862     0296                     	;# 
  1863     0298                     	;# 
  1864     0298                     	;# 
  1865     0299                     	;# 
  1866     029A                     	;# 
  1867     029B                     	;# 
  1868     029C                     	;# 
  1869     029C                     	;# 
  1870     029D                     	;# 
  1871     029E                     	;# 
  1872     029F                     	;# 
  1873     0311                     	;# 
  1874     0311                     	;# 
  1875     0312                     	;# 
  1876     0313                     	;# 
  1877     0314                     	;# 
  1878     0315                     	;# 
  1879     0315                     	;# 
  1880     0316                     	;# 
  1881     0318                     	;# 
  1882     0318                     	;# 
  1883     0319                     	;# 
  1884     031A                     	;# 
  1885     031C                     	;# 
  1886     031C                     	;# 
  1887     031D                     	;# 
  1888     031E                     	;# 
  1889     0394                     	;# 
  1890     0395                     	;# 
  1891     0396                     	;# 
  1892     0415                     	;# 
  1893     0416                     	;# 
  1894     0417                     	;# 
  1895     041C                     	;# 
  1896     041D                     	;# 
  1897     041E                     	;# 
  1898     0791                     	;# 
  1899     0792                     	;# 
  1900     0793                     	;# 
  1901     0794                     	;# 
  1902     0795                     	;# 
  1903     0798                     	;# 
  1904     0799                     	;# 
  1905     07A0                     	;# 
  1906     07A1                     	;# 
  1907     07A3                     	;# 
  1908     07A4                     	;# 
  1909     07A6                     	;# 
  1910     07A7                     	;# 
  1911     07A9                     	;# 
  1912     07AA                     	;# 
  1913     0FE4                     	;# 
  1914     0FE5                     	;# 
  1915     0FE6                     	;# 
  1916     0FE7                     	;# 
  1917     0FE8                     	;# 
  1918     0FE9                     	;# 
  1919     0FEA                     	;# 
  1920     0FEB                     	;# 
  1921     0FED                     	;# 
  1922     0FEE                     	;# 
  1923     0FEF                     	;# 
  1924                           
  1925                           	psect	idataBANK0
  1926     06B6                     __pidataBANK0:
  1927                           
  1928                           ;initializer for _LIN_timeout
  1929     06B6  340A               	retlw	10
  1930                           
  1931                           	psect	stringtext1
  1932     069D                     __pstringtext1:
  1933     069D                     _scheduleTable:
  1934     069D  3401               	retlw	1
  1935     069E  3401               	retlw	1
  1936     069F  3408               	retlw	8
  1937     06A0  34A0               	retlw	low (_SIGNAL_Data| 0)
  1938     06A1                     __end_of_scheduleTable:
  1939     001C                     _T2CONbits	set	28
  1940     001C                     _T2CON	set	28
  1941     001A                     _TMR2	set	26
  1942     001B                     _PR2	set	27
  1943     0015                     _TMR0	set	21
  1944     0011                     _PIR1bits	set	17
  1945     000B                     _INTCONbits	set	11
  1946     0095                     _OPTION_REG	set	149
  1947     0095                     _OPTION_REGbits	set	149
  1948     008E                     _TRISC	set	142
  1949     008D                     _TRISB	set	141
  1950     008C                     _TRISA	set	140
  1951     0090                     _TRISE	set	144
  1952     0097                     _WDTCON	set	151
  1953     0098                     _OSCTUNE	set	152
  1954     0099                     _OSCCON	set	153
  1955     0091                     _PIE1bits	set	145
  1956     04D6                     _PLLR	set	1238
  1957     011D                     _APFCON	set	285
  1958     010E                     _LATC	set	270
  1959     010D                     _LATB	set	269
  1960     010C                     _LATA	set	268
  1961     0110                     _LATE	set	272
  1962     0116                     _BORCON	set	278
  1963     010C                     _LATAbits	set	268
  1964     018C                     _ANSELA	set	396
  1965     018D                     _ANSELB	set	397
  1966     0199                     _RCREG	set	409
  1967     019A                     _TXREG	set	410
  1968     019C                     _SPBRGH	set	412
  1969     019B                     _SPBRGL	set	411
  1970     019E                     _TXSTA	set	414
  1971     019D                     _RCSTA	set	413
  1972     019F                     _BAUDCON	set	415
  1973     019D                     _RCSTAbits	set	413
  1974     019E                     _TXSTAbits	set	414
  1975     020D                     _WPUB	set	525
  1976     0210                     _WPUE	set	528
  1977     029E                     _CCPTMRS0bits	set	670
  1978     0291                     _CCPR1L	set	657
  1979     0292                     _CCPR1H	set	658
  1980     0296                     _PSTR1CON	set	662
  1981     0294                     _PWM1CON	set	660
  1982     0295                     _ECCP1AS	set	661
  1983     0293                     _CCP1CON	set	659
  1984                           
  1985                           	psect	cinit
  1986     003A                     start_initialization:	
  1987                           ; #config settings
  1988                           
  1989     003A                     __initialization:
  1990                           
  1991                           ; Initialize objects allocated to BANK0
  1992     003A  3186  26B6  3180   	fcall	__pidataBANK0	;fetch initializer
  1993     003D  00EE               	movwf	__pdataBANK0& (0+127)
  1994                           
  1995                           ; Clear objects allocated to COMMON
  1996     003E  01FB               	clrf	__pbssCOMMON& (0+127)
  1997     003F  01FC               	clrf	(__pbssCOMMON+1)& (0+127)
  1998                           
  1999                           ; Clear objects allocated to BANK0
  2000     0040  3020               	movlw	low __pbssBANK0
  2001     0041  0084               	movwf	4
  2002     0042  3000               	movlw	high __pbssBANK0
  2003     0043  0085               	movwf	5
  2004     0044  3043               	movlw	67
  2005     0045  3186  265F  3180   	fcall	clear_ram0
  2006                           
  2007                           ; Clear objects allocated to BANK1
  2008     0048  30A0               	movlw	low __pbssBANK1
  2009     0049  0084               	movwf	4
  2010     004A  3000               	movlw	high __pbssBANK1
  2011     004B  0085               	movwf	5
  2012     004C  3008               	movlw	8
  2013     004D  3186  265F  3180   	fcall	clear_ram0
  2014     0050                     end_of_initialization:	
  2015                           ;End of C runtime variable initialization code
  2016                           
  2017     0050                     __end_of__initialization:
  2018     0050  107E               	bcf	int$flags,0	;clear compiler interrupt flag (level 1)
  2019     0051  0020               	movlb	0
  2020     0052  3186  2E1D         	ljmp	_main	;jump to C main() function
  2021                           
  2022                           	psect	bssCOMMON
  2023     007B                     __pbssCOMMON:
  2024     007B                     _eusartRxTail:
  2025     007B                     	ds	1
  2026     007C                     _eusartRxHead:
  2027     007C                     	ds	1
  2028                           
  2029                           	psect	bssBANK0
  2030     0020                     __pbssBANK0:
  2031     0020                     _eusartRxStatusBuffer:
  2032     0020                     	ds	8
  2033     0028                     _eusartRxBuffer:
  2034     0028                     	ds	8
  2035     0030                     _eusartTxBuffer:
  2036     0030                     	ds	8
  2037     0038                     _TMR0_InterruptHandler:
  2038     0038                     	ds	2
  2039     003A                     _EUSART_ErrorHandler:
  2040     003A                     	ds	2
  2041     003C                     _EUSART_OverrunErrorHandler:
  2042     003C                     	ds	2
  2043     003E                     _EUSART_FramingErrorHandler:
  2044     003E                     	ds	2
  2045     0040                     _EUSART_RxDefaultInterruptHandler:
  2046     0040                     	ds	2
  2047     0042                     _EUSART_TxDefaultInterruptHandler:
  2048     0042                     	ds	2
  2049     0044                     _LIN_rxCommand:
  2050     0044                     	ds	2
  2051     0046                     _LIN_processData:
  2052     0046                     	ds	2
  2053     0048                     _timer0ReloadVal:
  2054     0048                     	ds	1
  2055     0049                     _eusartRxLastError:
  2056     0049                     	ds	1
  2057     004A                     _eusartRxCount:
  2058     004A                     	ds	1
  2059     004B                     _eusartTxBufferRemaining:
  2060     004B                     	ds	1
  2061     004C                     _eusartTxTail:
  2062     004C                     	ds	1
  2063     004D                     _eusartTxHead:
  2064     004D                     	ds	1
  2065     004E                     LIN_handler@rxDataIndex:
  2066     004E                     	ds	1
  2067     004F                     LIN_handler@LIN_rxState:
  2068     004F                     	ds	1
  2069     0050                     _CountCallBack:
  2070     0050                     	ds	1
  2071     0051                     _LIN_timerRunning:
  2072     0051                     	ds	1
  2073     0052                     _LIN_rxCommandLength:
  2074     0052                     	ds	1
  2075     0053                     _LIN_rxInProgress:
  2076     0053                     	ds	1
  2077     0054                     _lampFlags:
  2078     0054                     	ds	1
  2079     0055                     _lampState:
  2080     0055                     	ds	1
  2081     0056                     _LIN_packet:
  2082     0056                     	ds	13
  2083                           
  2084                           	psect	dataBANK0
  2085     006E                     __pdataBANK0:
  2086     006E                     _LIN_timeout:
  2087     006E                     	ds	1
  2088                           
  2089                           	psect	bssBANK1
  2090     00A0                     __pbssBANK1:
  2091     00A0                     _SIGNAL_Data:
  2092     00A0                     	ds	8
  2093                           
  2094                           	psect	clrtext
  2095     065F                     clear_ram0:	
  2096                           ;	Called with FSR0 containing the base address, and
  2097                           ;	WREG with the size to clear
  2098                           
  2099     065F  0064               	clrwdt	;clear the watchdog before getting into this loop
  2100     0660                     clrloop0:
  2101     0660  0180               	clrf	0	;clear RAM location pointed to by FSR
  2102     0661  3101               	addfsr 0,1
  2103     0662  0B89               	decfsz	9,f	;Have we reached the end of clearing yet?
  2104     0663  2E60               	goto	clrloop0	;have we reached the end yet?
  2105     0664  3400               	retlw	0	;all done for this memory range, return
  2106                           
  2107                           	psect	cstackBANK1
  2108     00A8                     __pcstackBANK1:
  2109     00A8                     ??_LIN_handler:
  2110                           
  2111                           ; 1 bytes @ 0x0
  2112     00A8                     	ds	2
  2113                           
  2114                           	psect	cstackCOMMON
  2115     0070                     __pcstackCOMMON:
  2116     0070                     ?_SYSTEM_Initialize:
  2117     0070                     ?_LIN_handler:	
  2118                           ; 1 bytes @ 0x0
  2119                           
  2120     0070                     ?_processLIN:	
  2121                           ; 1 bytes @ 0x0
  2122                           
  2123     0070                     ?_LIN_getPacket:	
  2124                           ; 1 bytes @ 0x0
  2125                           
  2126     0070                     ?_LIN_stopTimer:	
  2127                           ; 1 bytes @ 0x0
  2128                           
  2129     0070                     ?_LIN_enableRx:	
  2130                           ; 1 bytes @ 0x0
  2131                           
  2132     0070                     ?_LIN_setTimerHandler:	
  2133                           ; 1 bytes @ 0x0
  2134                           
  2135     0070                     ?_EUSART_is_rx_ready:	
  2136                           ; 1 bytes @ 0x0
  2137                           
  2138     0070                     ?_LIN_startTimer:	
  2139                           ; 1 bytes @ 0x0
  2140                           
  2141     0070                     ?_LIN_breakCheck:	
  2142                           ; 1 bytes @ 0x0
  2143                           
  2144     0070                     ?_EUSART_Read:	
  2145                           ; 1 bytes @ 0x0
  2146                           
  2147     0070                     ?_LIN_checkPID:	
  2148                           ; 1 bytes @ 0x0
  2149                           
  2150     0070                     ?_LIN_disableRx:	
  2151                           ; 1 bytes @ 0x0
  2152                           
  2153     0070                     ?_EUSART_Write:	
  2154                           ; 1 bytes @ 0x0
  2155                           
  2156     0070                     ?_LIN_calcParity:	
  2157                           ; 1 bytes @ 0x0
  2158                           
  2159     0070                     ?_TMR0_WriteTimer:	
  2160                           ; 1 bytes @ 0x0
  2161                           
  2162     0070                     ?_EUSART_get_last_status:	
  2163                           ; 1 bytes @ 0x0
  2164                           
  2165     0070                     ?_EUSART_Receive_ISR:	
  2166                           ; 1 bytes @ 0x0
  2167                           
  2168     0070                     ?_EUSART_Transmit_ISR:	
  2169                           ; 1 bytes @ 0x0
  2170                           
  2171     0070                     ??_EUSART_Transmit_ISR:	
  2172                           ; 1 bytes @ 0x0
  2173                           
  2174     0070                     ?_EUSART_DefaultFramingErrorHandler:	
  2175                           ; 1 bytes @ 0x0
  2176                           
  2177     0070                     ??_EUSART_DefaultFramingErrorHandler:	
  2178                           ; 1 bytes @ 0x0
  2179                           
  2180     0070                     ?_EUSART_DefaultOverrunErrorHandler:	
  2181                           ; 1 bytes @ 0x0
  2182                           
  2183     0070                     ??_EUSART_DefaultOverrunErrorHandler:	
  2184                           ; 1 bytes @ 0x0
  2185                           
  2186     0070                     ?_EUSART_DefaultErrorHandler:	
  2187                           ; 1 bytes @ 0x0
  2188                           
  2189     0070                     ?_EUSART_RxDataHandler:	
  2190                           ; 1 bytes @ 0x0
  2191                           
  2192     0070                     ??_EUSART_RxDataHandler:	
  2193                           ; 1 bytes @ 0x0
  2194                           
  2195     0070                     ?_TMR0_ISR:	
  2196                           ; 1 bytes @ 0x0
  2197                           
  2198     0070                     ?_PIN_MANAGER_Initialize:	
  2199                           ; 1 bytes @ 0x0
  2200                           
  2201     0070                     ?_OSCILLATOR_Initialize:	
  2202                           ; 1 bytes @ 0x0
  2203                           
  2204     0070                     ?_WDT_Initialize:	
  2205                           ; 1 bytes @ 0x0
  2206                           
  2207     0070                     ?_TMR2_Initialize:	
  2208                           ; 1 bytes @ 0x0
  2209                           
  2210     0070                     ?_TMR0_Initialize:	
  2211                           ; 1 bytes @ 0x0
  2212                           
  2213     0070                     ?_TMR0_DefaultInterruptHandler:	
  2214                           ; 1 bytes @ 0x0
  2215                           
  2216     0070                     ??_TMR0_DefaultInterruptHandler:	
  2217                           ; 1 bytes @ 0x0
  2218                           
  2219     0070                     ?_POS_ON:	
  2220                           ; 1 bytes @ 0x0
  2221                           
  2222     0070                     ?_POS_OFF:	
  2223                           ; 1 bytes @ 0x0
  2224                           
  2225     0070                     ?_DRL_ON:	
  2226                           ; 1 bytes @ 0x0
  2227                           
  2228     0070                     ?_DRL_OFF:	
  2229                           ; 1 bytes @ 0x0
  2230                           
  2231     0070                     ?_HIBEAM_ON:	
  2232                           ; 1 bytes @ 0x0
  2233                           
  2234     0070                     ?_HIBEAM_OFF:	
  2235                           ; 1 bytes @ 0x0
  2236                           
  2237     0070                     ?_LIN_Slave_Initialize:	
  2238                           ; 1 bytes @ 0x0
  2239                           
  2240     0070                     ?_LIN_queuePacket:	
  2241                           ; 1 bytes @ 0x0
  2242                           
  2243     0070                     ?_LIN_timerHandler:	
  2244                           ; 1 bytes @ 0x0
  2245                           
  2246     0070                     ??_LIN_timerHandler:	
  2247                           ; 1 bytes @ 0x0
  2248                           
  2249     0070                     ?_EPWM1_Initialize:	
  2250                           ; 1 bytes @ 0x0
  2251                           
  2252     0070                     ?_EUSART_Initialize:	
  2253                           ; 1 bytes @ 0x0
  2254                           
  2255     0070                     ?_INTERRUPT_InterruptManager:	
  2256                           ; 1 bytes @ 0x0
  2257                           
  2258     0070                     ?_main:	
  2259                           ; 1 bytes @ 0x0
  2260                           
  2261                           
  2262                           ; 2 bytes @ 0x0
  2263     0070                     	ds	1
  2264     0071                     ?_EPWM1_LoadDutyValue:
  2265     0071                     ??_LIN_stopTimer:	
  2266                           ; 1 bytes @ 0x1
  2267                           
  2268     0071                     ??_LIN_enableRx:	
  2269                           ; 1 bytes @ 0x1
  2270                           
  2271     0071                     ?_memcpy:	
  2272                           ; 1 bytes @ 0x1
  2273                           
  2274     0071                     ?_LIN_getChecksum:	
  2275                           ; 1 bytes @ 0x1
  2276                           
  2277     0071                     ??_EUSART_is_rx_ready:	
  2278                           ; 1 bytes @ 0x1
  2279                           
  2280     0071                     ??_EUSART_Read:	
  2281                           ; 1 bytes @ 0x1
  2282                           
  2283     0071                     ?_LIN_getFromTable:	
  2284                           ; 1 bytes @ 0x1
  2285                           
  2286     0071                     ??_LIN_disableRx:	
  2287                           ; 1 bytes @ 0x1
  2288                           
  2289     0071                     ?_memset:	
  2290                           ; 1 bytes @ 0x1
  2291                           
  2292     0071                     ??_EUSART_Write:	
  2293                           ; 1 bytes @ 0x1
  2294                           
  2295     0071                     ??_LIN_calcParity:	
  2296                           ; 1 bytes @ 0x1
  2297                           
  2298     0071                     ??_TMR0_WriteTimer:	
  2299                           ; 1 bytes @ 0x1
  2300                           
  2301     0071                     ?_TMR0_SetInterruptHandler:	
  2302                           ; 1 bytes @ 0x1
  2303                           
  2304     0071                     ??_EUSART_get_last_status:	
  2305                           ; 1 bytes @ 0x1
  2306                           
  2307     0071                     ?_EUSART_SetRxInterruptHandler:	
  2308                           ; 1 bytes @ 0x1
  2309                           
  2310     0071                     ??_EUSART_Receive_ISR:	
  2311                           ; 1 bytes @ 0x1
  2312                           
  2313     0071                     ?_EUSART_SetTxInterruptHandler:	
  2314                           ; 1 bytes @ 0x1
  2315                           
  2316     0071                     ?_EUSART_SetFramingErrorHandler:	
  2317                           ; 1 bytes @ 0x1
  2318                           
  2319     0071                     ?_EUSART_SetOverrunErrorHandler:	
  2320                           ; 1 bytes @ 0x1
  2321                           
  2322     0071                     ?_EUSART_SetErrorHandler:	
  2323                           ; 1 bytes @ 0x1
  2324                           
  2325     0071                     ??_EUSART_DefaultErrorHandler:	
  2326                           ; 1 bytes @ 0x1
  2327                           
  2328     0071                     ??_TMR0_ISR:	
  2329                           ; 1 bytes @ 0x1
  2330                           
  2331     0071                     ??_PIN_MANAGER_Initialize:	
  2332                           ; 1 bytes @ 0x1
  2333                           
  2334     0071                     ??_OSCILLATOR_Initialize:	
  2335                           ; 1 bytes @ 0x1
  2336                           
  2337     0071                     ??_WDT_Initialize:	
  2338                           ; 1 bytes @ 0x1
  2339                           
  2340     0071                     ??_TMR2_Initialize:	
  2341                           ; 1 bytes @ 0x1
  2342                           
  2343     0071                     ??_HIBEAM_ON:	
  2344                           ; 1 bytes @ 0x1
  2345                           
  2346     0071                     ??_HIBEAM_OFF:	
  2347                           ; 1 bytes @ 0x1
  2348                           
  2349     0071                     ??_EPWM1_Initialize:	
  2350                           ; 1 bytes @ 0x1
  2351                           
  2352     0071                     ??_INTERRUPT_InterruptManager:	
  2353                           ; 1 bytes @ 0x1
  2354                           
  2355     0071                     LIN_getFromTable@param:	
  2356                           ; 1 bytes @ 0x1
  2357                           
  2358     0071                     LIN_getChecksum@pid:	
  2359                           ; 1 bytes @ 0x1
  2360                           
  2361     0071                     TMR0_WriteTimer@timerVal:	
  2362                           ; 1 bytes @ 0x1
  2363                           
  2364     0071                     memcpy@s1:	
  2365                           ; 1 bytes @ 0x1
  2366                           
  2367     0071                     EPWM1_LoadDutyValue@dutyValue:	
  2368                           ; 1 bytes @ 0x1
  2369                           
  2370     0071                     EUSART_SetFramingErrorHandler@interruptHandler:	
  2371                           ; 2 bytes @ 0x1
  2372                           
  2373     0071                     EUSART_SetOverrunErrorHandler@interruptHandler:	
  2374                           ; 2 bytes @ 0x1
  2375                           
  2376     0071                     EUSART_SetErrorHandler@interruptHandler:	
  2377                           ; 2 bytes @ 0x1
  2378                           
  2379     0071                     EUSART_SetTxInterruptHandler@interruptHandler:	
  2380                           ; 2 bytes @ 0x1
  2381                           
  2382     0071                     EUSART_SetRxInterruptHandler@interruptHandler:	
  2383                           ; 2 bytes @ 0x1
  2384                           
  2385     0071                     TMR0_SetInterruptHandler@InterruptHandler:	
  2386                           ; 2 bytes @ 0x1
  2387                           
  2388     0071                     memset@c:	
  2389                           ; 2 bytes @ 0x1
  2390                           
  2391                           
  2392                           ; 2 bytes @ 0x1
  2393     0071                     	ds	1
  2394     0072                     ??_LIN_startTimer:
  2395     0072                     ??_LIN_getFromTable:	
  2396                           ; 1 bytes @ 0x2
  2397                           
  2398     0072                     LIN_calcParity@CMD:	
  2399                           ; 1 bytes @ 0x2
  2400                           
  2401     0072                     LIN_getChecksum@data:	
  2402                           ; 1 bytes @ 0x2
  2403                           
  2404     0072                     LIN_startTimer@timeout:	
  2405                           ; 1 bytes @ 0x2
  2406                           
  2407     0072                     EUSART_Read@readValue:	
  2408                           ; 1 bytes @ 0x2
  2409                           
  2410     0072                     EUSART_Write@txData:	
  2411                           ; 1 bytes @ 0x2
  2412                           
  2413     0072                     memcpy@n:	
  2414                           ; 1 bytes @ 0x2
  2415                           
  2416                           
  2417                           ; 2 bytes @ 0x2
  2418     0072                     	ds	1
  2419     0073                     ??_EPWM1_LoadDutyValue:
  2420     0073                     ?_LIN_init:	
  2421                           ; 1 bytes @ 0x3
  2422                           
  2423     0073                     ??_LIN_setTimerHandler:	
  2424                           ; 1 bytes @ 0x3
  2425                           
  2426     0073                     ??_LIN_getChecksum:	
  2427                           ; 1 bytes @ 0x3
  2428                           
  2429     0073                     ??_LIN_breakCheck:	
  2430                           ; 1 bytes @ 0x3
  2431                           
  2432     0073                     ??_TMR0_SetInterruptHandler:	
  2433                           ; 1 bytes @ 0x3
  2434                           
  2435     0073                     ??_EUSART_SetRxInterruptHandler:	
  2436                           ; 1 bytes @ 0x3
  2437                           
  2438     0073                     ??_EUSART_SetTxInterruptHandler:	
  2439                           ; 1 bytes @ 0x3
  2440                           
  2441     0073                     ??_EUSART_SetFramingErrorHandler:	
  2442                           ; 1 bytes @ 0x3
  2443                           
  2444     0073                     ??_EUSART_SetOverrunErrorHandler:	
  2445                           ; 1 bytes @ 0x3
  2446                           
  2447     0073                     ??_EUSART_SetErrorHandler:	
  2448                           ; 1 bytes @ 0x3
  2449                           
  2450     0073                     ??_TMR0_Initialize:	
  2451                           ; 1 bytes @ 0x3
  2452                           
  2453     0073                     ??_EUSART_Initialize:	
  2454                           ; 1 bytes @ 0x3
  2455                           
  2456     0073                     LIN_calcParity@PID:	
  2457                           ; 1 bytes @ 0x3
  2458                           
  2459     0073                     LIN_init@command:	
  2460                           ; 1 bytes @ 0x3
  2461                           
  2462     0073                     memset@n:	
  2463                           ; 2 bytes @ 0x3
  2464                           
  2465                           
  2466                           ; 2 bytes @ 0x3
  2467     0073                     	ds	1
  2468     0074                     ??_memcpy:
  2469     0074                     LIN_getFromTable@cmd:	
  2470                           ; 1 bytes @ 0x4
  2471                           
  2472                           
  2473                           ; 1 bytes @ 0x4
  2474     0074                     	ds	1
  2475     0075                     ??_memset:
  2476     0075                     ??_POS_ON:	
  2477                           ; 1 bytes @ 0x5
  2478                           
  2479     0075                     ??_POS_OFF:	
  2480                           ; 1 bytes @ 0x5
  2481                           
  2482     0075                     ??_DRL_ON:	
  2483                           ; 1 bytes @ 0x5
  2484                           
  2485     0075                     ??_DRL_OFF:	
  2486                           ; 1 bytes @ 0x5
  2487                           
  2488     0075                     LIN_getFromTable@length:	
  2489                           ; 1 bytes @ 0x5
  2490                           
  2491     0075                     LIN_getChecksum@length:	
  2492                           ; 1 bytes @ 0x5
  2493                           
  2494     0075                     memcpy@tmp:	
  2495                           ; 1 bytes @ 0x5
  2496                           
  2497     0075                     LIN_init@processData:	
  2498                           ; 1 bytes @ 0x5
  2499                           
  2500                           
  2501                           ; 2 bytes @ 0x5
  2502     0075                     	ds	1
  2503     0076                     LIN_getChecksum@i:
  2504     0076                     memcpy@d:	
  2505                           ; 1 bytes @ 0x6
  2506                           
  2507     0076                     memset@p:	
  2508                           ; 1 bytes @ 0x6
  2509                           
  2510     0076                     LIN_getFromTable@rxCommand:	
  2511                           ; 1 bytes @ 0x6
  2512                           
  2513                           
  2514                           ; 2 bytes @ 0x6
  2515     0076                     	ds	1
  2516     0077                     ??_LIN_init:
  2517     0077                     LIN_init@tableLength:	
  2518                           ; 1 bytes @ 0x7
  2519                           
  2520     0077                     memcpy@s:	
  2521                           ; 1 bytes @ 0x7
  2522                           
  2523     0077                     memset@dest:	
  2524                           ; 1 bytes @ 0x7
  2525                           
  2526     0077                     LIN_getChecksum@checksum:	
  2527                           ; 1 bytes @ 0x7
  2528                           
  2529                           
  2530                           ; 2 bytes @ 0x7
  2531     0077                     	ds	1
  2532     0078                     ??_SYSTEM_Initialize:
  2533     0078                     ??_LIN_checkPID:	
  2534                           ; 1 bytes @ 0x8
  2535                           
  2536     0078                     ??_LIN_Slave_Initialize:	
  2537                           ; 1 bytes @ 0x8
  2538                           
  2539     0078                     LIN_checkPID@pid:	
  2540                           ; 1 bytes @ 0x8
  2541                           
  2542     0078                     memcpy@d1:	
  2543                           ; 1 bytes @ 0x8
  2544                           
  2545                           
  2546                           ; 1 bytes @ 0x8
  2547     0078                     	ds	1
  2548     0079                     ??_LIN_getPacket:
  2549     0079                     ?_LIN_sendPacket:	
  2550                           ; 1 bytes @ 0x9
  2551                           
  2552     0079                     LIN_sendPacket@pid:	
  2553                           ; 1 bytes @ 0x9
  2554                           
  2555     0079                     LIN_getPacket@cmd:	
  2556                           ; 1 bytes @ 0x9
  2557                           
  2558                           
  2559                           ; 1 bytes @ 0x9
  2560     0079                     	ds	1
  2561     007A                     LIN_sendPacket@data:
  2562     007A                     LIN_getPacket@data:	
  2563                           ; 1 bytes @ 0xA
  2564                           
  2565                           
  2566                           ; 1 bytes @ 0xA
  2567     007A                     	ds	1
  2568     007B                     ??_processLIN:
  2569     007B                     ??_main:	
  2570                           ; 1 bytes @ 0xB
  2571                           
  2572                           
  2573                           	psect	cstackBANK0
  2574     0063                     __pcstackBANK0:	
  2575                           ; 1 bytes @ 0xB
  2576                           
  2577     0063                     ??_LIN_sendPacket:
  2578     0063                     processLIN@cmd:	
  2579                           ; 1 bytes @ 0x0
  2580                           
  2581                           
  2582                           ; 1 bytes @ 0x0
  2583     0063                     	ds	1
  2584     0064                     LIN_sendPacket@length:
  2585     0064                     processLIN@tempRxData:	
  2586                           ; 1 bytes @ 0x1
  2587                           
  2588                           
  2589                           ; 8 bytes @ 0x1
  2590     0064                     	ds	1
  2591     0065                     LIN_sendPacket@i:
  2592                           
  2593                           ; 1 bytes @ 0x2
  2594     0065                     	ds	1
  2595     0066                     ??_LIN_queuePacket:
  2596                           
  2597                           ; 1 bytes @ 0x3
  2598     0066                     	ds	4
  2599     006A                     LIN_queuePacket@cmd:
  2600                           
  2601                           ; 1 bytes @ 0x7
  2602     006A                     	ds	1
  2603     006B                     LIN_queuePacket@i:
  2604                           
  2605                           ; 1 bytes @ 0x8
  2606     006B                     	ds	1
  2607     006C                     LIN_queuePacket@tempSchedule:
  2608                           
  2609                           ; 2 bytes @ 0x9
  2610     006C                     	ds	2
  2611                           
  2612                           	psect	maintext
  2613     061D                     __pmaintext:	
  2614 ;;
  2615 ;;Main: autosize = 0, tempsize = 0, incstack = 0, save=0
  2616 ;;
  2617 ;; *************** function _main *****************
  2618 ;; Defined at:
  2619 ;;		line 50 in file "D:\yiming\00work\FR752.X\main.c"
  2620 ;; Parameters:    Size  Location     Type
  2621 ;;		None
  2622 ;; Auto vars:     Size  Location     Type
  2623 ;;		None
  2624 ;; Return value:  Size  Location     Type
  2625 ;;                  2   14[None  ] int 
  2626 ;; Registers used:
  2627 ;;		wreg, fsr0l, fsr0h, fsr1l, fsr1h, status,2, status,0, pclath, cstack
  2628 ;; Tracked objects:
  2629 ;;		On entry : B1F/0
  2630 ;;		On exit  : 0/0
  2631 ;;		Unchanged: 0/0
  2632 ;; Data sizes:     COMMON   BANK0   BANK1   BANK2   BANK3   BANK4   BANK5   BANK6
  2633 ;;      Params:         0       0       0       0       0       0       0       0
  2634 ;;      Locals:         0       0       0       0       0       0       0       0
  2635 ;;      Temps:          0       0       0       0       0       0       0       0
  2636 ;;      Totals:         0       0       0       0       0       0       0       0
  2637 ;;Total ram usage:        0 bytes
  2638 ;; Hardware stack levels required when called: 9
  2639 ;; This function calls:
  2640 ;;		_LIN_handler
  2641 ;;		_SYSTEM_Initialize
  2642 ;; This function is called by:
  2643 ;;		Startup code after reset
  2644 ;; This function uses a non-reentrant model
  2645 ;;
  2646                           
  2647     061D                     _main:	
  2648                           ;psect for function _main
  2649                           
  2650     061D                     l2681:	
  2651                           ;incstack = 0
  2652                           ; Regs used in _main: [wreg-fsr1h+status,2+status,0+pclath+cstack]
  2653                           
  2654                           
  2655                           ;D:\yiming\00work\FR752.X\main.c: 53:     SYSTEM_Initialize();
  2656     061D  3185  2547  3186   	fcall	_SYSTEM_Initialize
  2657     0620                     l2683:
  2658                           
  2659                           ;D:\yiming\00work\FR752.X\main.c: 59:     (INTCONbits.GIE = 1);
  2660     0620  178B               	bsf	11,7	;volatile
  2661     0621                     l2685:
  2662                           
  2663                           ;D:\yiming\00work\FR752.X\main.c: 62:     (INTCONbits.PEIE = 1);
  2664     0621  170B               	bsf	11,6	;volatile
  2665     0622                     l2687:
  2666                           
  2667                           ;D:\yiming\00work\FR752.X\main.c: 71:     {;D:\yiming\00work\FR752.X\main.c: 73:        
      +                           LIN_handler();
  2668     0622  3180  2054  3186   	fcall	_LIN_handler
  2669     0625  2E22               	goto	l2687
  2670     0626  3180  2838         	ljmp	start
  2671     0628                     __end_of_main:
  2672                           
  2673                           	psect	text1
  2674     0547                     __ptext1:	
  2675 ;; *************** function _SYSTEM_Initialize *****************
  2676 ;; Defined at:
  2677 ;;		line 50 in file "D:\yiming\00work\FR752.X\mcc_generated_files\mcc.c"
  2678 ;; Parameters:    Size  Location     Type
  2679 ;;		None
  2680 ;; Auto vars:     Size  Location     Type
  2681 ;;		None
  2682 ;; Return value:  Size  Location     Type
  2683 ;;                  1    wreg      void 
  2684 ;; Registers used:
  2685 ;;		wreg, status,2, status,0, pclath, cstack
  2686 ;; Tracked objects:
  2687 ;;		On entry : 0/0
  2688 ;;		On exit  : 0/0
  2689 ;;		Unchanged: 0/0
  2690 ;; Data sizes:     COMMON   BANK0   BANK1   BANK2   BANK3   BANK4   BANK5   BANK6
  2691 ;;      Params:         0       0       0       0       0       0       0       0
  2692 ;;      Locals:         0       0       0       0       0       0       0       0
  2693 ;;      Temps:          0       0       0       0       0       0       0       0
  2694 ;;      Totals:         0       0       0       0       0       0       0       0
  2695 ;;Total ram usage:        0 bytes
  2696 ;; Hardware stack levels used: 1
  2697 ;; Hardware stack levels required when called: 8
  2698 ;; This function calls:
  2699 ;;		_EPWM1_Initialize
  2700 ;;		_EUSART_Initialize
  2701 ;;		_LIN_Slave_Initialize
  2702 ;;		_OSCILLATOR_Initialize
  2703 ;;		_PIN_MANAGER_Initialize
  2704 ;;		_TMR0_Initialize
  2705 ;;		_TMR2_Initialize
  2706 ;;		_WDT_Initialize
  2707 ;; This function is called by:
  2708 ;;		_main
  2709 ;; This function uses a non-reentrant model
  2710 ;;
  2711                           
  2712     0547                     _SYSTEM_Initialize:	
  2713                           ;psect for function _SYSTEM_Initialize
  2714                           
  2715     0547                     l2321:	
  2716                           ;incstack = 0
  2717                           ; Regs used in _SYSTEM_Initialize: [wreg+status,2+status,0+pclath+cstack]
  2718                           
  2719                           
  2720                           ;D:\yiming\00work\FR752.X\mcc_generated_files\mcc.c: 53:     PIN_MANAGER_Initialize();
  2721     0547  3184  24F8  3185   	fcall	_PIN_MANAGER_Initialize
  2722                           
  2723                           ;D:\yiming\00work\FR752.X\mcc_generated_files\mcc.c: 54:     OSCILLATOR_Initialize();
  2724     054A  3186  2611  3185   	fcall	_OSCILLATOR_Initialize
  2725                           
  2726                           ;D:\yiming\00work\FR752.X\mcc_generated_files\mcc.c: 55:     WDT_Initialize();
  2727     054D  3186  26A1  3185   	fcall	_WDT_Initialize
  2728                           
  2729                           ;D:\yiming\00work\FR752.X\mcc_generated_files\mcc.c: 56:     EPWM1_Initialize();
  2730     0550  3185  25F7  3185   	fcall	_EPWM1_Initialize
  2731                           
  2732                           ;D:\yiming\00work\FR752.X\mcc_generated_files\mcc.c: 57:     TMR2_Initialize();
  2733     0553  3186  2631  3185   	fcall	_TMR2_Initialize
  2734                           
  2735                           ;D:\yiming\00work\FR752.X\mcc_generated_files\mcc.c: 58:     TMR0_Initialize();
  2736     0556  3185  25A5  3185   	fcall	_TMR0_Initialize
  2737                           
  2738                           ;D:\yiming\00work\FR752.X\mcc_generated_files\mcc.c: 59:     EUSART_Initialize();
  2739     0559  3183  2378  3185   	fcall	_EUSART_Initialize
  2740                           
  2741                           ;D:\yiming\00work\FR752.X\mcc_generated_files\mcc.c: 60:     LIN_Slave_Initialize();
  2742     055C  3185  25EA  3185   	fcall	_LIN_Slave_Initialize
  2743     055F                     l494:
  2744     055F  0008               	return
  2745     0560                     __end_of_SYSTEM_Initialize:
  2746                           
  2747                           	psect	text2
  2748     06A1                     __ptext2:	
  2749 ;; *************** function _WDT_Initialize *****************
  2750 ;; Defined at:
  2751 ;;		line 77 in file "D:\yiming\00work\FR752.X\mcc_generated_files\mcc.c"
  2752 ;; Parameters:    Size  Location     Type
  2753 ;;		None
  2754 ;; Auto vars:     Size  Location     Type
  2755 ;;		None
  2756 ;; Return value:  Size  Location     Type
  2757 ;;                  1    wreg      void 
  2758 ;; Registers used:
  2759 ;;		wreg
  2760 ;; Tracked objects:
  2761 ;;		On entry : 0/0
  2762 ;;		On exit  : 0/0
  2763 ;;		Unchanged: 0/0
  2764 ;; Data sizes:     COMMON   BANK0   BANK1   BANK2   BANK3   BANK4   BANK5   BANK6
  2765 ;;      Params:         0       0       0       0       0       0       0       0
  2766 ;;      Locals:         0       0       0       0       0       0       0       0
  2767 ;;      Temps:          0       0       0       0       0       0       0       0
  2768 ;;      Totals:         0       0       0       0       0       0       0       0
  2769 ;;Total ram usage:        0 bytes
  2770 ;; Hardware stack levels used: 1
  2771 ;; Hardware stack levels required when called: 4
  2772 ;; This function calls:
  2773 ;;		Nothing
  2774 ;; This function is called by:
  2775 ;;		_SYSTEM_Initialize
  2776 ;; This function uses a non-reentrant model
  2777 ;;
  2778                           
  2779     06A1                     _WDT_Initialize:	
  2780                           ;psect for function _WDT_Initialize
  2781                           
  2782     06A1                     l1655:	
  2783                           ;incstack = 0
  2784                           ; Regs used in _WDT_Initialize: [wreg]
  2785                           
  2786                           
  2787                           ;D:\yiming\00work\FR752.X\mcc_generated_files\mcc.c: 80:     WDTCON = 0x16;
  2788     06A1  3016               	movlw	22
  2789     06A2  0021               	movlb	1	; select bank1
  2790     06A3  0097               	movwf	23	;volatile
  2791     06A4                     l503:
  2792     06A4  0008               	return
  2793     06A5                     __end_of_WDT_Initialize:
  2794                           
  2795                           	psect	text3
  2796     0631                     __ptext3:	
  2797 ;; *************** function _TMR2_Initialize *****************
  2798 ;; Defined at:
  2799 ;;		line 62 in file "D:\yiming\00work\FR752.X\mcc_generated_files\tmr2.c"
  2800 ;; Parameters:    Size  Location     Type
  2801 ;;		None
  2802 ;; Auto vars:     Size  Location     Type
  2803 ;;		None
  2804 ;; Return value:  Size  Location     Type
  2805 ;;                  1    wreg      void 
  2806 ;; Registers used:
  2807 ;;		wreg, status,2
  2808 ;; Tracked objects:
  2809 ;;		On entry : 0/0
  2810 ;;		On exit  : 0/0
  2811 ;;		Unchanged: 0/0
  2812 ;; Data sizes:     COMMON   BANK0   BANK1   BANK2   BANK3   BANK4   BANK5   BANK6
  2813 ;;      Params:         0       0       0       0       0       0       0       0
  2814 ;;      Locals:         0       0       0       0       0       0       0       0
  2815 ;;      Temps:          0       0       0       0       0       0       0       0
  2816 ;;      Totals:         0       0       0       0       0       0       0       0
  2817 ;;Total ram usage:        0 bytes
  2818 ;; Hardware stack levels used: 1
  2819 ;; Hardware stack levels required when called: 4
  2820 ;; This function calls:
  2821 ;;		Nothing
  2822 ;; This function is called by:
  2823 ;;		_SYSTEM_Initialize
  2824 ;; This function uses a non-reentrant model
  2825 ;;
  2826                           
  2827     0631                     _TMR2_Initialize:	
  2828                           ;psect for function _TMR2_Initialize
  2829                           
  2830     0631                     l1657:	
  2831                           ;incstack = 0
  2832                           ; Regs used in _TMR2_Initialize: [wreg+status,2]
  2833                           
  2834                           
  2835                           ;D:\yiming\00work\FR752.X\mcc_generated_files\tmr2.c: 67:     PR2 = 0x7C;
  2836     0631  307C               	movlw	124
  2837     0632  0020               	movlb	0	; select bank0
  2838     0633  009B               	movwf	27	;volatile
  2839     0634                     l1659:
  2840                           
  2841                           ;D:\yiming\00work\FR752.X\mcc_generated_files\tmr2.c: 70:     TMR2 = 0x00;
  2842     0634  019A               	clrf	26	;volatile
  2843     0635                     l1661:
  2844                           
  2845                           ;D:\yiming\00work\FR752.X\mcc_generated_files\tmr2.c: 73:     PIR1bits.TMR2IF = 0;
  2846     0635  1091               	bcf	17,1	;volatile
  2847     0636                     l1663:
  2848                           
  2849                           ;D:\yiming\00work\FR752.X\mcc_generated_files\tmr2.c: 76:     T2CON = 0x07;
  2850     0636  3007               	movlw	7
  2851     0637  009C               	movwf	28	;volatile
  2852     0638                     l586:
  2853     0638  0008               	return
  2854     0639                     __end_of_TMR2_Initialize:
  2855                           
  2856                           	psect	text4
  2857     05A5                     __ptext4:	
  2858 ;; *************** function _TMR0_Initialize *****************
  2859 ;; Defined at:
  2860 ;;		line 64 in file "D:\yiming\00work\FR752.X\mcc_generated_files\tmr0.c"
  2861 ;; Parameters:    Size  Location     Type
  2862 ;;		None
  2863 ;; Auto vars:     Size  Location     Type
  2864 ;;		None
  2865 ;; Return value:  Size  Location     Type
  2866 ;;                  1    wreg      void 
  2867 ;; Registers used:
  2868 ;;		wreg, status,2, status,0, pclath, cstack
  2869 ;; Tracked objects:
  2870 ;;		On entry : 0/0
  2871 ;;		On exit  : 0/0
  2872 ;;		Unchanged: 0/0
  2873 ;; Data sizes:     COMMON   BANK0   BANK1   BANK2   BANK3   BANK4   BANK5   BANK6
  2874 ;;      Params:         0       0       0       0       0       0       0       0
  2875 ;;      Locals:         0       0       0       0       0       0       0       0
  2876 ;;      Temps:          0       0       0       0       0       0       0       0
  2877 ;;      Totals:         0       0       0       0       0       0       0       0
  2878 ;;Total ram usage:        0 bytes
  2879 ;; Hardware stack levels used: 1
  2880 ;; Hardware stack levels required when called: 5
  2881 ;; This function calls:
  2882 ;;		_TMR0_SetInterruptHandler
  2883 ;; This function is called by:
  2884 ;;		_SYSTEM_Initialize
  2885 ;; This function uses a non-reentrant model
  2886 ;;
  2887                           
  2888     05A5                     _TMR0_Initialize:	
  2889                           ;psect for function _TMR0_Initialize
  2890                           
  2891     05A5                     l2309:	
  2892                           ;incstack = 0
  2893                           ; Regs used in _TMR0_Initialize: [wreg+status,2+status,0+pclath+cstack]
  2894                           
  2895                           
  2896                           ;D:\yiming\00work\FR752.X\mcc_generated_files\tmr0.c: 69:     OPTION_REG = (uint8_t)((OP
      +                          TION_REG & 0xC0) | (0xD4 & 0x3F));
  2897     05A5  0021               	movlb	1	; select bank1
  2898     05A6  0815               	movf	21,w	;volatile
  2899     05A7  39C0               	andlw	192
  2900     05A8  3814               	iorlw	20
  2901     05A9  0095               	movwf	21	;volatile
  2902     05AA                     l2311:
  2903                           
  2904                           ;D:\yiming\00work\FR752.X\mcc_generated_files\tmr0.c: 72:     TMR0 = 0x06;
  2905     05AA  3006               	movlw	6
  2906     05AB  0020               	movlb	0	; select bank0
  2907     05AC  0095               	movwf	21	;volatile
  2908     05AD                     l2313:
  2909                           
  2910                           ;D:\yiming\00work\FR752.X\mcc_generated_files\tmr0.c: 75:     timer0ReloadVal= 6;
  2911     05AD  3006               	movlw	6
  2912     05AE  00C8               	movwf	_timer0ReloadVal	;volatile
  2913     05AF                     l2315:
  2914                           
  2915                           ;D:\yiming\00work\FR752.X\mcc_generated_files\tmr0.c: 78:     INTCONbits.TMR0IF = 0;
  2916     05AF  110B               	bcf	11,2	;volatile
  2917     05B0                     l2317:
  2918                           
  2919                           ;D:\yiming\00work\FR752.X\mcc_generated_files\tmr0.c: 81:     INTCONbits.TMR0IE = 1;
  2920     05B0  168B               	bsf	11,5	;volatile
  2921     05B1                     l2319:
  2922                           
  2923                           ;D:\yiming\00work\FR752.X\mcc_generated_files\tmr0.c: 84:     TMR0_SetInterruptHandler(T
      +                          MR0_DefaultInterruptHandler);
  2924     05B1  30B7               	movlw	low _TMR0_DefaultInterruptHandler
  2925     05B2  00F1               	movwf	TMR0_SetInterruptHandler@InterruptHandler
  2926     05B3  3006               	movlw	high _TMR0_DefaultInterruptHandler
  2927     05B4  00F2               	movwf	TMR0_SetInterruptHandler@InterruptHandler+1
  2928     05B5  3186  2665  3185   	fcall	_TMR0_SetInterruptHandler
  2929     05B8                     l554:
  2930     05B8  0008               	return
  2931     05B9                     __end_of_TMR0_Initialize:
  2932                           
  2933                           	psect	text5
  2934     04F8                     __ptext5:	
  2935 ;; *************** function _PIN_MANAGER_Initialize *****************
  2936 ;; Defined at:
  2937 ;;		line 55 in file "D:\yiming\00work\FR752.X\mcc_generated_files\pin_manager.c"
  2938 ;; Parameters:    Size  Location     Type
  2939 ;;		None
  2940 ;; Auto vars:     Size  Location     Type
  2941 ;;		None
  2942 ;; Return value:  Size  Location     Type
  2943 ;;                  1    wreg      void 
  2944 ;; Registers used:
  2945 ;;		wreg, status,2
  2946 ;; Tracked objects:
  2947 ;;		On entry : 0/0
  2948 ;;		On exit  : 0/0
  2949 ;;		Unchanged: 0/0
  2950 ;; Data sizes:     COMMON   BANK0   BANK1   BANK2   BANK3   BANK4   BANK5   BANK6
  2951 ;;      Params:         0       0       0       0       0       0       0       0
  2952 ;;      Locals:         0       0       0       0       0       0       0       0
  2953 ;;      Temps:          0       0       0       0       0       0       0       0
  2954 ;;      Totals:         0       0       0       0       0       0       0       0
  2955 ;;Total ram usage:        0 bytes
  2956 ;; Hardware stack levels used: 1
  2957 ;; Hardware stack levels required when called: 4
  2958 ;; This function calls:
  2959 ;;		Nothing
  2960 ;; This function is called by:
  2961 ;;		_SYSTEM_Initialize
  2962 ;; This function uses a non-reentrant model
  2963 ;;
  2964                           
  2965     04F8                     _PIN_MANAGER_Initialize:	
  2966                           ;psect for function _PIN_MANAGER_Initialize
  2967                           
  2968     04F8                     l1633:	
  2969                           ;incstack = 0
  2970                           ; Regs used in _PIN_MANAGER_Initialize: [wreg+status,2]
  2971                           
  2972                           
  2973                           ;D:\yiming\00work\FR752.X\mcc_generated_files\pin_manager.c: 60:     LATE = 0x00;
  2974     04F8  0022               	movlb	2	; select bank2
  2975     04F9  0190               	clrf	16	;volatile
  2976                           
  2977                           ;D:\yiming\00work\FR752.X\mcc_generated_files\pin_manager.c: 61:     LATA = 0x00;
  2978     04FA  018C               	clrf	12	;volatile
  2979                           
  2980                           ;D:\yiming\00work\FR752.X\mcc_generated_files\pin_manager.c: 62:     LATB = 0x00;
  2981     04FB  018D               	clrf	13	;volatile
  2982                           
  2983                           ;D:\yiming\00work\FR752.X\mcc_generated_files\pin_manager.c: 63:     LATC = 0x00;
  2984     04FC  018E               	clrf	14	;volatile
  2985     04FD                     l1635:
  2986                           
  2987                           ;D:\yiming\00work\FR752.X\mcc_generated_files\pin_manager.c: 68:     TRISE = 0x08;
  2988     04FD  3008               	movlw	8
  2989     04FE  0021               	movlb	1	; select bank1
  2990     04FF  0090               	movwf	16	;volatile
  2991     0500                     l1637:
  2992                           
  2993                           ;D:\yiming\00work\FR752.X\mcc_generated_files\pin_manager.c: 69:     TRISA = 0xFB;
  2994     0500  30FB               	movlw	251
  2995     0501  008C               	movwf	12	;volatile
  2996     0502                     l1639:
  2997                           
  2998                           ;D:\yiming\00work\FR752.X\mcc_generated_files\pin_manager.c: 70:     TRISB = 0xFF;
  2999     0502  30FF               	movlw	255
  3000     0503  008D               	movwf	13	;volatile
  3001     0504                     l1641:
  3002                           
  3003                           ;D:\yiming\00work\FR752.X\mcc_generated_files\pin_manager.c: 71:     TRISC = 0xBB;
  3004     0504  30BB               	movlw	187
  3005     0505  008E               	movwf	14	;volatile
  3006     0506                     l1643:
  3007                           
  3008                           ;D:\yiming\00work\FR752.X\mcc_generated_files\pin_manager.c: 76:     ANSELB = 0x3F;
  3009     0506  303F               	movlw	63
  3010     0507  0023               	movlb	3	; select bank3
  3011     0508  008D               	movwf	13	;volatile
  3012     0509                     l1645:
  3013                           
  3014                           ;D:\yiming\00work\FR752.X\mcc_generated_files\pin_manager.c: 77:     ANSELA = 0x2E;
  3015     0509  302E               	movlw	46
  3016     050A  008C               	movwf	12	;volatile
  3017                           
  3018                           ;D:\yiming\00work\FR752.X\mcc_generated_files\pin_manager.c: 82:     WPUE = 0x00;
  3019     050B  0024               	movlb	4	; select bank4
  3020     050C  0190               	clrf	16	;volatile
  3021                           
  3022                           ;D:\yiming\00work\FR752.X\mcc_generated_files\pin_manager.c: 83:     WPUB = 0x00;
  3023     050D  018D               	clrf	13	;volatile
  3024     050E                     l1647:
  3025                           
  3026                           ;D:\yiming\00work\FR752.X\mcc_generated_files\pin_manager.c: 84:     OPTION_REGbits.nWPU
      +                          EN = 1;
  3027     050E  0021               	movlb	1	; select bank1
  3028     050F  1795               	bsf	21,7	;volatile
  3029                           
  3030                           ;D:\yiming\00work\FR752.X\mcc_generated_files\pin_manager.c: 90:     APFCON = 0x00;
  3031     0510  0022               	movlb	2	; select bank2
  3032     0511  019D               	clrf	29	;volatile
  3033     0512                     l534:
  3034     0512  0008               	return
  3035     0513                     __end_of_PIN_MANAGER_Initialize:
  3036                           
  3037                           	psect	text6
  3038     0611                     __ptext6:	
  3039 ;; *************** function _OSCILLATOR_Initialize *****************
  3040 ;; Defined at:
  3041 ;;		line 63 in file "D:\yiming\00work\FR752.X\mcc_generated_files\mcc.c"
  3042 ;; Parameters:    Size  Location     Type
  3043 ;;		None
  3044 ;; Auto vars:     Size  Location     Type
  3045 ;;		None
  3046 ;; Return value:  Size  Location     Type
  3047 ;;                  1    wreg      void 
  3048 ;; Registers used:
  3049 ;;		wreg, status,2
  3050 ;; Tracked objects:
  3051 ;;		On entry : 0/0
  3052 ;;		On exit  : 0/0
  3053 ;;		Unchanged: 0/0
  3054 ;; Data sizes:     COMMON   BANK0   BANK1   BANK2   BANK3   BANK4   BANK5   BANK6
  3055 ;;      Params:         0       0       0       0       0       0       0       0
  3056 ;;      Locals:         0       0       0       0       0       0       0       0
  3057 ;;      Temps:          0       0       0       0       0       0       0       0
  3058 ;;      Totals:         0       0       0       0       0       0       0       0
  3059 ;;Total ram usage:        0 bytes
  3060 ;; Hardware stack levels used: 1
  3061 ;; Hardware stack levels required when called: 4
  3062 ;; This function calls:
  3063 ;;		Nothing
  3064 ;; This function is called by:
  3065 ;;		_SYSTEM_Initialize
  3066 ;; This function uses a non-reentrant model
  3067 ;;
  3068                           
  3069     0611                     _OSCILLATOR_Initialize:	
  3070                           ;psect for function _OSCILLATOR_Initialize
  3071                           
  3072     0611                     l1649:	
  3073                           ;incstack = 0
  3074                           ; Regs used in _OSCILLATOR_Initialize: [wreg+status,2]
  3075                           
  3076                           
  3077                           ;D:\yiming\00work\FR752.X\mcc_generated_files\mcc.c: 66:     OSCCON = 0x70;
  3078     0611  3070               	movlw	112
  3079     0612  0021               	movlb	1	; select bank1
  3080     0613  0099               	movwf	25	;volatile
  3081     0614                     l1651:
  3082                           
  3083                           ;D:\yiming\00work\FR752.X\mcc_generated_files\mcc.c: 68:     OSCTUNE = 0x00;
  3084     0614  0198               	clrf	24	;volatile
  3085     0615                     l1653:
  3086                           
  3087                           ;D:\yiming\00work\FR752.X\mcc_generated_files\mcc.c: 70:     BORCON = 0x00;
  3088     0615  0022               	movlb	2	; select bank2
  3089     0616  0196               	clrf	22	;volatile
  3090     0617                     l497:	
  3091                           ;D:\yiming\00work\FR752.X\mcc_generated_files\mcc.c: 73:     {;D:\yiming\00work\FR752.X\
      +                          mcc_generated_files\mcc.c: 74:     }
  3092                           
  3093                           
  3094                           ;D:\yiming\00work\FR752.X\mcc_generated_files\mcc.c: 72:     while(PLLR == 0)
  3095     0617  0021               	movlb	1	; select bank1
  3096     0618  1F1A               	btfss	26,6	;volatile
  3097     0619  2E1B               	goto	u691
  3098     061A  2E1C               	goto	u690
  3099     061B                     u691:
  3100     061B  2E17               	goto	l497
  3101     061C                     u690:
  3102     061C                     l500:
  3103     061C  0008               	return
  3104     061D                     __end_of_OSCILLATOR_Initialize:
  3105                           
  3106                           	psect	text7
  3107     05EA                     __ptext7:	
  3108 ;; *************** function _LIN_Slave_Initialize *****************
  3109 ;; Defined at:
  3110 ;;		line 97 in file "D:\yiming\00work\FR752.X\mcc_generated_files\LINDrivers\lin_app.c"
  3111 ;; Parameters:    Size  Location     Type
  3112 ;;		None
  3113 ;; Auto vars:     Size  Location     Type
  3114 ;;		None
  3115 ;; Return value:  Size  Location     Type
  3116 ;;                  1    wreg      void 
  3117 ;; Registers used:
  3118 ;;		wreg, status,2, status,0, pclath, cstack
  3119 ;; Tracked objects:
  3120 ;;		On entry : 0/0
  3121 ;;		On exit  : 0/0
  3122 ;;		Unchanged: 0/0
  3123 ;; Data sizes:     COMMON   BANK0   BANK1   BANK2   BANK3   BANK4   BANK5   BANK6
  3124 ;;      Params:         0       0       0       0       0       0       0       0
  3125 ;;      Locals:         0       0       0       0       0       0       0       0
  3126 ;;      Temps:          0       0       0       0       0       0       0       0
  3127 ;;      Totals:         0       0       0       0       0       0       0       0
  3128 ;;Total ram usage:        0 bytes
  3129 ;; Hardware stack levels used: 1
  3130 ;; Hardware stack levels required when called: 7
  3131 ;; This function calls:
  3132 ;;		_LIN_init
  3133 ;; This function is called by:
  3134 ;;		_SYSTEM_Initialize
  3135 ;; This function uses a non-reentrant model
  3136 ;;
  3137                           
  3138     05EA                     _LIN_Slave_Initialize:	
  3139                           ;psect for function _LIN_Slave_Initialize
  3140                           
  3141     05EA                     l2117:	
  3142                           ;incstack = 0
  3143                           ; Regs used in _LIN_Slave_Initialize: [wreg+status,2+status,0+pclath+cstack]
  3144                           
  3145                           
  3146                           ;D:\yiming\00work\FR752.X\mcc_generated_files\LINDrivers\lin_app.c: 99:   LIN_init((size
      +                          of(scheduleTable)/sizeof(lin_rx_cmd_t)), scheduleTable, processLIN);
  3147     05EA  309D               	movlw	low (_scheduleTable| (0+32768))
  3148     05EB  00F3               	movwf	LIN_init@command
  3149     05EC  3086               	movlw	high (_scheduleTable| (0+32768))
  3150     05ED  00F4               	movwf	LIN_init@command+1
  3151     05EE  3072               	movlw	low _processLIN
  3152     05EF  00F5               	movwf	LIN_init@processData
  3153     05F0  3001               	movlw	high _processLIN
  3154     05F1  00F6               	movwf	LIN_init@processData+1
  3155     05F2  3001               	movlw	1
  3156     05F3  3185  258F  3185   	fcall	_LIN_init
  3157     05F6                     l61:
  3158     05F6  0008               	return
  3159     05F7                     __end_of_LIN_Slave_Initialize:
  3160                           
  3161                           	psect	text8
  3162     058F                     __ptext8:	
  3163 ;; *************** function _LIN_init *****************
  3164 ;; Defined at:
  3165 ;;		line 58 in file "D:\yiming\00work\FR752.X\mcc_generated_files\LINDrivers\lin_slave.c"
  3166 ;; Parameters:    Size  Location     Type
  3167 ;;  tableLength     1    wreg     unsigned char 
  3168 ;;  command         2    3[COMMON] const PTR const struct .
  3169 ;;		 -> scheduleTable(4), 
  3170 ;;  processData     2    5[COMMON] PTR FTN()void 
  3171 ;;		 -> processLIN(1), 
  3172 ;; Auto vars:     Size  Location     Type
  3173 ;;  tableLength     1    7[COMMON] unsigned char 
  3174 ;; Return value:  Size  Location     Type
  3175 ;;                  1    wreg      void 
  3176 ;; Registers used:
  3177 ;;		wreg, status,2, status,0, pclath, cstack
  3178 ;; Tracked objects:
  3179 ;;		On entry : 0/0
  3180 ;;		On exit  : 0/0
  3181 ;;		Unchanged: 0/0
  3182 ;; Data sizes:     COMMON   BANK0   BANK1   BANK2   BANK3   BANK4   BANK5   BANK6
  3183 ;;      Params:         4       0       0       0       0       0       0       0
  3184 ;;      Locals:         1       0       0       0       0       0       0       0
  3185 ;;      Temps:          0       0       0       0       0       0       0       0
  3186 ;;      Totals:         5       0       0       0       0       0       0       0
  3187 ;;Total ram usage:        5 bytes
  3188 ;; Hardware stack levels used: 1
  3189 ;; Hardware stack levels required when called: 6
  3190 ;; This function calls:
  3191 ;;		_LIN_enableRx
  3192 ;;		_LIN_setTimerHandler
  3193 ;;		_LIN_stopTimer
  3194 ;; This function is called by:
  3195 ;;		_LIN_Slave_Initialize
  3196 ;; This function uses a non-reentrant model
  3197 ;;
  3198                           
  3199     058F                     _LIN_init:	
  3200                           ;psect for function _LIN_init
  3201                           
  3202                           
  3203                           ;incstack = 0
  3204                           ; Regs used in _LIN_init: [wreg+status,2+status,0+pclath+cstack]
  3205                           ;LIN_init@tableLength stored from wreg
  3206     058F  00F7               	movwf	LIN_init@tableLength
  3207     0590                     l1985:
  3208                           
  3209                           ;D:\yiming\00work\FR752.X\mcc_generated_files\LINDrivers\lin_slave.c: 58: void LIN_init(
      +                          uint8_t tableLength, const lin_rx_cmd_t *const command,;D:\yiming\00work\FR752.X\mcc_gen
      +                          erated_files\LINDrivers\lin_slave.c: 59:               void (*processData)(void)) {;D:\y
      +                          iming\00work\FR752.X\mcc_generated_files\LINDrivers\lin_slave.c: 60:   LIN_rxCommand = c
      +                          ommand;
  3210     0590  0874               	movf	LIN_init@command+1,w
  3211     0591  0020               	movlb	0	; select bank0
  3212     0592  00C5               	movwf	_LIN_rxCommand+1
  3213     0593  0873               	movf	LIN_init@command,w
  3214     0594  00C4               	movwf	_LIN_rxCommand
  3215                           
  3216                           ;D:\yiming\00work\FR752.X\mcc_generated_files\LINDrivers\lin_slave.c: 61:   LIN_rxComman
      +                          dLength = tableLength;
  3217     0595  0877               	movf	LIN_init@tableLength,w
  3218     0596  00D2               	movwf	_LIN_rxCommandLength
  3219                           
  3220                           ;D:\yiming\00work\FR752.X\mcc_generated_files\LINDrivers\lin_slave.c: 62:   LIN_processD
      +                          ata = processData;
  3221     0597  0876               	movf	LIN_init@processData+1,w
  3222     0598  00C7               	movwf	_LIN_processData+1
  3223     0599  0875               	movf	LIN_init@processData,w
  3224     059A  00C6               	movwf	_LIN_processData
  3225     059B                     l1987:
  3226                           
  3227                           ;D:\yiming\00work\FR752.X\mcc_generated_files\LINDrivers\lin_slave.c: 63:   LIN_stopTime
      +                          r();
  3228     059B  3186  2689  3185   	fcall	_LIN_stopTimer
  3229     059E                     l1989:
  3230                           
  3231                           ;D:\yiming\00work\FR752.X\mcc_generated_files\LINDrivers\lin_slave.c: 64:   LIN_enableRx
      +                          ();
  3232     059E  3186  2693  3185   	fcall	_LIN_enableRx
  3233     05A1                     l1991:
  3234                           
  3235                           ;D:\yiming\00work\FR752.X\mcc_generated_files\LINDrivers\lin_slave.c: 65:   LIN_setTimer
      +                          Handler();
  3236     05A1  3186  2639  3185   	fcall	_LIN_setTimerHandler
  3237     05A4                     l161:
  3238     05A4  0008               	return
  3239     05A5                     __end_of_LIN_init:
  3240                           
  3241                           	psect	text9
  3242     0639                     __ptext9:	
  3243 ;; *************** function _LIN_setTimerHandler *****************
  3244 ;; Defined at:
  3245 ;;		line 303 in file "D:\yiming\00work\FR752.X\mcc_generated_files\LINDrivers\lin_slave.c"
  3246 ;; Parameters:    Size  Location     Type
  3247 ;;		None
  3248 ;; Auto vars:     Size  Location     Type
  3249 ;;		None
  3250 ;; Return value:  Size  Location     Type
  3251 ;;                  1    wreg      void 
  3252 ;; Registers used:
  3253 ;;		wreg, status,2, status,0, pclath, cstack
  3254 ;; Tracked objects:
  3255 ;;		On entry : 0/0
  3256 ;;		On exit  : 0/0
  3257 ;;		Unchanged: 0/0
  3258 ;; Data sizes:     COMMON   BANK0   BANK1   BANK2   BANK3   BANK4   BANK5   BANK6
  3259 ;;      Params:         0       0       0       0       0       0       0       0
  3260 ;;      Locals:         0       0       0       0       0       0       0       0
  3261 ;;      Temps:          0       0       0       0       0       0       0       0
  3262 ;;      Totals:         0       0       0       0       0       0       0       0
  3263 ;;Total ram usage:        0 bytes
  3264 ;; Hardware stack levels used: 1
  3265 ;; Hardware stack levels required when called: 5
  3266 ;; This function calls:
  3267 ;;		_TMR0_SetInterruptHandler
  3268 ;; This function is called by:
  3269 ;;		_LIN_init
  3270 ;; This function uses a non-reentrant model
  3271 ;;
  3272                           
  3273     0639                     _LIN_setTimerHandler:	
  3274                           ;psect for function _LIN_setTimerHandler
  3275                           
  3276     0639                     l1921:	
  3277                           ;incstack = 0
  3278                           ; Regs used in _LIN_setTimerHandler: [wreg+status,2+status,0+pclath+cstack]
  3279                           
  3280     0639  30DC               	movlw	low _LIN_timerHandler
  3281     063A  00F1               	movwf	TMR0_SetInterruptHandler@InterruptHandler
  3282     063B  3005               	movlw	high _LIN_timerHandler
  3283     063C  00F2               	movwf	TMR0_SetInterruptHandler@InterruptHandler+1
  3284     063D  3186  2665  3186   	fcall	_TMR0_SetInterruptHandler
  3285     0640                     l255:
  3286     0640  0008               	return
  3287     0641                     __end_of_LIN_setTimerHandler:
  3288                           
  3289                           	psect	text10
  3290     0665                     __ptext10:	
  3291 ;; *************** function _TMR0_SetInterruptHandler *****************
  3292 ;; Defined at:
  3293 ;;		line 125 in file "D:\yiming\00work\FR752.X\mcc_generated_files\tmr0.c"
  3294 ;; Parameters:    Size  Location     Type
  3295 ;;  InterruptHan    2    1[COMMON] PTR FTN()void 
  3296 ;;		 -> TMR0_DefaultInterruptHandler(1), LIN_timerHandler(1), 
  3297 ;; Auto vars:     Size  Location     Type
  3298 ;;		None
  3299 ;; Return value:  Size  Location     Type
  3300 ;;                  1    wreg      void 
  3301 ;; Registers used:
  3302 ;;		wreg
  3303 ;; Tracked objects:
  3304 ;;		On entry : 0/0
  3305 ;;		On exit  : 0/0
  3306 ;;		Unchanged: 0/0
  3307 ;; Data sizes:     COMMON   BANK0   BANK1   BANK2   BANK3   BANK4   BANK5   BANK6
  3308 ;;      Params:         2       0       0       0       0       0       0       0
  3309 ;;      Locals:         0       0       0       0       0       0       0       0
  3310 ;;      Temps:          0       0       0       0       0       0       0       0
  3311 ;;      Totals:         2       0       0       0       0       0       0       0
  3312 ;;Total ram usage:        2 bytes
  3313 ;; Hardware stack levels used: 1
  3314 ;; Hardware stack levels required when called: 4
  3315 ;; This function calls:
  3316 ;;		Nothing
  3317 ;; This function is called by:
  3318 ;;		_LIN_setTimerHandler
  3319 ;;		_TMR0_Initialize
  3320 ;; This function uses a non-reentrant model
  3321 ;;
  3322                           
  3323     0665                     _TMR0_SetInterruptHandler:	
  3324                           ;psect for function _TMR0_SetInterruptHandler
  3325                           
  3326     0665                     l1911:	
  3327                           ;incstack = 0
  3328                           ; Regs used in _TMR0_SetInterruptHandler: [wreg]
  3329                           
  3330                           
  3331                           ;D:\yiming\00work\FR752.X\mcc_generated_files\tmr0.c: 126:     TMR0_InterruptHandler = I
      +                          nterruptHandler;
  3332     0665  0872               	movf	TMR0_SetInterruptHandler@InterruptHandler+1,w
  3333     0666  0020               	movlb	0	; select bank0
  3334     0667  00B9               	movwf	_TMR0_InterruptHandler+1
  3335     0668  0871               	movf	TMR0_SetInterruptHandler@InterruptHandler,w
  3336     0669  00B8               	movwf	_TMR0_InterruptHandler
  3337     066A                     l570:
  3338     066A  0008               	return
  3339     066B                     __end_of_TMR0_SetInterruptHandler:
  3340                           
  3341                           	psect	text11
  3342     0378                     __ptext11:	
  3343 ;; *************** function _EUSART_Initialize *****************
  3344 ;; Defined at:
  3345 ;;		line 88 in file "D:\yiming\00work\FR752.X\mcc_generated_files\eusart.c"
  3346 ;; Parameters:    Size  Location     Type
  3347 ;;		None
  3348 ;; Auto vars:     Size  Location     Type
  3349 ;;		None
  3350 ;; Return value:  Size  Location     Type
  3351 ;;                  1    wreg      void 
  3352 ;; Registers used:
  3353 ;;		wreg, status,2, status,0, pclath, cstack
  3354 ;; Tracked objects:
  3355 ;;		On entry : 0/0
  3356 ;;		On exit  : 0/0
  3357 ;;		Unchanged: 0/0
  3358 ;; Data sizes:     COMMON   BANK0   BANK1   BANK2   BANK3   BANK4   BANK5   BANK6
  3359 ;;      Params:         0       0       0       0       0       0       0       0
  3360 ;;      Locals:         0       0       0       0       0       0       0       0
  3361 ;;      Temps:          0       0       0       0       0       0       0       0
  3362 ;;      Totals:         0       0       0       0       0       0       0       0
  3363 ;;Total ram usage:        0 bytes
  3364 ;; Hardware stack levels used: 1
  3365 ;; Hardware stack levels required when called: 5
  3366 ;; This function calls:
  3367 ;;		_EUSART_SetErrorHandler
  3368 ;;		_EUSART_SetFramingErrorHandler
  3369 ;;		_EUSART_SetOverrunErrorHandler
  3370 ;;		_EUSART_SetRxInterruptHandler
  3371 ;;		_EUSART_SetTxInterruptHandler
  3372 ;; This function is called by:
  3373 ;;		_SYSTEM_Initialize
  3374 ;; This function uses a non-reentrant model
  3375 ;;
  3376                           
  3377     0378                     _EUSART_Initialize:	
  3378                           ;psect for function _EUSART_Initialize
  3379                           
  3380     0378                     l2273:	
  3381                           ;incstack = 0
  3382                           ; Regs used in _EUSART_Initialize: [wreg+status,2+status,0+pclath+cstack]
  3383                           
  3384                           
  3385                           ;D:\yiming\00work\FR752.X\mcc_generated_files\eusart.c: 91:     PIE1bits.RCIE = 0;
  3386     0378  0021               	movlb	1	; select bank1
  3387     0379  1291               	bcf	17,5	;volatile
  3388     037A                     l2275:
  3389                           
  3390                           ;D:\yiming\00work\FR752.X\mcc_generated_files\eusart.c: 92:     EUSART_SetRxInterruptHan
      +                          dler(EUSART_Receive_ISR);
  3391     037A  30B6               	movlw	low _EUSART_Receive_ISR
  3392     037B  00F1               	movwf	EUSART_SetRxInterruptHandler@interruptHandler
  3393     037C  3003               	movlw	high _EUSART_Receive_ISR
  3394     037D  00F2               	movwf	EUSART_SetRxInterruptHandler@interruptHandler+1
  3395     037E  3186  2671  3183   	fcall	_EUSART_SetRxInterruptHandler
  3396     0381                     l2277:
  3397                           
  3398                           ;D:\yiming\00work\FR752.X\mcc_generated_files\eusart.c: 93:     PIE1bits.TXIE = 0;
  3399     0381  0021               	movlb	1	; select bank1
  3400     0382  1211               	bcf	17,4	;volatile
  3401                           
  3402                           ;D:\yiming\00work\FR752.X\mcc_generated_files\eusart.c: 94:     EUSART_SetTxInterruptHan
      +                          dler(EUSART_Transmit_ISR);
  3403     0383  30BA               	movlw	low _EUSART_Transmit_ISR
  3404     0384  00F1               	movwf	EUSART_SetTxInterruptHandler@interruptHandler
  3405     0385  3004               	movlw	high _EUSART_Transmit_ISR
  3406     0386  00F2               	movwf	EUSART_SetTxInterruptHandler@interruptHandler+1
  3407     0387  3186  266B  3183   	fcall	_EUSART_SetTxInterruptHandler
  3408     038A                     l2279:
  3409                           
  3410                           ;D:\yiming\00work\FR752.X\mcc_generated_files\eusart.c: 98:     BAUDCON = 0x09;
  3411     038A  3009               	movlw	9
  3412     038B  0023               	movlb	3	; select bank3
  3413     038C  009F               	movwf	31	;volatile
  3414     038D                     l2281:
  3415                           
  3416                           ;D:\yiming\00work\FR752.X\mcc_generated_files\eusart.c: 101:     RCSTA = 0x90;
  3417     038D  3090               	movlw	144
  3418     038E  009D               	movwf	29	;volatile
  3419     038F                     l2283:
  3420                           
  3421                           ;D:\yiming\00work\FR752.X\mcc_generated_files\eusart.c: 104:     TXSTA = 0x24;
  3422     038F  3024               	movlw	36
  3423     0390  009E               	movwf	30	;volatile
  3424     0391                     l2285:
  3425                           
  3426                           ;D:\yiming\00work\FR752.X\mcc_generated_files\eusart.c: 107:     SPBRGL = 0xFF;
  3427     0391  30FF               	movlw	255
  3428     0392  009B               	movwf	27	;volatile
  3429     0393                     l2287:
  3430                           
  3431                           ;D:\yiming\00work\FR752.X\mcc_generated_files\eusart.c: 110:     SPBRGH = 0x02;
  3432     0393  3002               	movlw	2
  3433     0394  009C               	movwf	28	;volatile
  3434     0395                     l2289:
  3435                           
  3436                           ;D:\yiming\00work\FR752.X\mcc_generated_files\eusart.c: 113:     EUSART_SetFramingErrorH
      +                          andler(EUSART_DefaultFramingErrorHandler);
  3437     0395  30B8               	movlw	low _EUSART_DefaultFramingErrorHandler
  3438     0396  00F1               	movwf	EUSART_SetFramingErrorHandler@interruptHandler
  3439     0397  3006               	movlw	high _EUSART_DefaultFramingErrorHandler
  3440     0398  00F2               	movwf	EUSART_SetFramingErrorHandler@interruptHandler+1
  3441     0399  3186  267D  3183   	fcall	_EUSART_SetFramingErrorHandler
  3442     039C                     l2291:
  3443                           
  3444                           ;D:\yiming\00work\FR752.X\mcc_generated_files\eusart.c: 114:     EUSART_SetOverrunErrorH
      +                          andler(EUSART_DefaultOverrunErrorHandler);
  3445     039C  30A5               	movlw	low _EUSART_DefaultOverrunErrorHandler
  3446     039D  00F1               	movwf	EUSART_SetOverrunErrorHandler@interruptHandler
  3447     039E  3006               	movlw	high _EUSART_DefaultOverrunErrorHandler
  3448     039F  00F2               	movwf	EUSART_SetOverrunErrorHandler@interruptHandler+1
  3449     03A0  3186  2677  3183   	fcall	_EUSART_SetOverrunErrorHandler
  3450     03A3                     l2293:
  3451                           
  3452                           ;D:\yiming\00work\FR752.X\mcc_generated_files\eusart.c: 115:     EUSART_SetErrorHandler(
      +                          EUSART_DefaultErrorHandler);
  3453     03A3  30A9               	movlw	low _EUSART_DefaultErrorHandler
  3454     03A4  00F1               	movwf	EUSART_SetErrorHandler@interruptHandler
  3455     03A5  3006               	movlw	high _EUSART_DefaultErrorHandler
  3456     03A6  00F2               	movwf	EUSART_SetErrorHandler@interruptHandler+1
  3457     03A7  3186  2683  3183   	fcall	_EUSART_SetErrorHandler
  3458     03AA                     l2295:
  3459                           
  3460                           ;D:\yiming\00work\FR752.X\mcc_generated_files\eusart.c: 117:     eusartRxLastError.statu
      +                          s = 0;
  3461     03AA  0020               	movlb	0	; select bank0
  3462     03AB  01C9               	clrf	_eusartRxLastError	;volatile
  3463     03AC                     l2297:
  3464                           
  3465                           ;D:\yiming\00work\FR752.X\mcc_generated_files\eusart.c: 120:     eusartTxHead = 0;
  3466     03AC  01CD               	clrf	_eusartTxHead	;volatile
  3467     03AD                     l2299:
  3468                           
  3469                           ;D:\yiming\00work\FR752.X\mcc_generated_files\eusart.c: 121:     eusartTxTail = 0;
  3470     03AD  01CC               	clrf	_eusartTxTail	;volatile
  3471     03AE                     l2301:
  3472                           
  3473                           ;D:\yiming\00work\FR752.X\mcc_generated_files\eusart.c: 122:     eusartTxBufferRemaining
      +                           = sizeof(eusartTxBuffer);
  3474     03AE  3008               	movlw	8
  3475     03AF  00CB               	movwf	_eusartTxBufferRemaining	;volatile
  3476                           
  3477                           ;D:\yiming\00work\FR752.X\mcc_generated_files\eusart.c: 124:     eusartRxHead = 0;
  3478     03B0  01FC               	clrf	_eusartRxHead	;volatile
  3479                           
  3480                           ;D:\yiming\00work\FR752.X\mcc_generated_files\eusart.c: 125:     eusartRxTail = 0;
  3481     03B1  01FB               	clrf	_eusartRxTail	;volatile
  3482                           
  3483                           ;D:\yiming\00work\FR752.X\mcc_generated_files\eusart.c: 126:     eusartRxCount = 0;
  3484     03B2  01CA               	clrf	_eusartRxCount	;volatile
  3485     03B3                     l2303:
  3486                           
  3487                           ;D:\yiming\00work\FR752.X\mcc_generated_files\eusart.c: 129:     PIE1bits.RCIE = 1;
  3488     03B3  0021               	movlb	1	; select bank1
  3489     03B4  1691               	bsf	17,5	;volatile
  3490     03B5                     l363:
  3491     03B5  0008               	return
  3492     03B6                     __end_of_EUSART_Initialize:
  3493                           
  3494                           	psect	text12
  3495     066B                     __ptext12:	
  3496 ;; *************** function _EUSART_SetTxInterruptHandler *****************
  3497 ;; Defined at:
  3498 ;;		line 276 in file "D:\yiming\00work\FR752.X\mcc_generated_files\eusart.c"
  3499 ;; Parameters:    Size  Location     Type
  3500 ;;  interruptHan    2    1[COMMON] PTR FTN()void 
  3501 ;;		 -> EUSART_Transmit_ISR(1), 
  3502 ;; Auto vars:     Size  Location     Type
  3503 ;;		None
  3504 ;; Return value:  Size  Location     Type
  3505 ;;                  1    wreg      void 
  3506 ;; Registers used:
  3507 ;;		wreg
  3508 ;; Tracked objects:
  3509 ;;		On entry : 0/0
  3510 ;;		On exit  : 0/0
  3511 ;;		Unchanged: 0/0
  3512 ;; Data sizes:     COMMON   BANK0   BANK1   BANK2   BANK3   BANK4   BANK5   BANK6
  3513 ;;      Params:         2       0       0       0       0       0       0       0
  3514 ;;      Locals:         0       0       0       0       0       0       0       0
  3515 ;;      Temps:          0       0       0       0       0       0       0       0
  3516 ;;      Totals:         2       0       0       0       0       0       0       0
  3517 ;;Total ram usage:        2 bytes
  3518 ;; Hardware stack levels used: 1
  3519 ;; Hardware stack levels required when called: 4
  3520 ;; This function calls:
  3521 ;;		Nothing
  3522 ;; This function is called by:
  3523 ;;		_EUSART_Initialize
  3524 ;; This function uses a non-reentrant model
  3525 ;;
  3526                           
  3527     066B                     _EUSART_SetTxInterruptHandler:	
  3528                           ;psect for function _EUSART_SetTxInterruptHandler
  3529                           
  3530     066B                     l2099:	
  3531                           ;incstack = 0
  3532                           ; Regs used in _EUSART_SetTxInterruptHandler: [wreg]
  3533                           
  3534                           
  3535                           ;D:\yiming\00work\FR752.X\mcc_generated_files\eusart.c: 277:     EUSART_TxDefaultInterru
      +                          ptHandler = interruptHandler;
  3536     066B  0872               	movf	EUSART_SetTxInterruptHandler@interruptHandler+1,w
  3537     066C  0020               	movlb	0	; select bank0
  3538     066D  00C3               	movwf	_EUSART_TxDefaultInterruptHandler+1
  3539     066E  0871               	movf	EUSART_SetTxInterruptHandler@interruptHandler,w
  3540     066F  00C2               	movwf	_EUSART_TxDefaultInterruptHandler
  3541     0670                     l429:
  3542     0670  0008               	return
  3543     0671                     __end_of_EUSART_SetTxInterruptHandler:
  3544                           
  3545                           	psect	text13
  3546     0671                     __ptext13:	
  3547 ;; *************** function _EUSART_SetRxInterruptHandler *****************
  3548 ;; Defined at:
  3549 ;;		line 280 in file "D:\yiming\00work\FR752.X\mcc_generated_files\eusart.c"
  3550 ;; Parameters:    Size  Location     Type
  3551 ;;  interruptHan    2    1[COMMON] PTR FTN()void 
  3552 ;;		 -> EUSART_Receive_ISR(1), 
  3553 ;; Auto vars:     Size  Location     Type
  3554 ;;		None
  3555 ;; Return value:  Size  Location     Type
  3556 ;;                  1    wreg      void 
  3557 ;; Registers used:
  3558 ;;		wreg
  3559 ;; Tracked objects:
  3560 ;;		On entry : 0/0
  3561 ;;		On exit  : 0/0
  3562 ;;		Unchanged: 0/0
  3563 ;; Data sizes:     COMMON   BANK0   BANK1   BANK2   BANK3   BANK4   BANK5   BANK6
  3564 ;;      Params:         2       0       0       0       0       0       0       0
  3565 ;;      Locals:         0       0       0       0       0       0       0       0
  3566 ;;      Temps:          0       0       0       0       0       0       0       0
  3567 ;;      Totals:         2       0       0       0       0       0       0       0
  3568 ;;Total ram usage:        2 bytes
  3569 ;; Hardware stack levels used: 1
  3570 ;; Hardware stack levels required when called: 4
  3571 ;; This function calls:
  3572 ;;		Nothing
  3573 ;; This function is called by:
  3574 ;;		_EUSART_Initialize
  3575 ;; This function uses a non-reentrant model
  3576 ;;
  3577                           
  3578     0671                     _EUSART_SetRxInterruptHandler:	
  3579                           ;psect for function _EUSART_SetRxInterruptHandler
  3580                           
  3581     0671                     l2097:	
  3582                           ;incstack = 0
  3583                           ; Regs used in _EUSART_SetRxInterruptHandler: [wreg]
  3584                           
  3585                           
  3586                           ;D:\yiming\00work\FR752.X\mcc_generated_files\eusart.c: 281:     EUSART_RxDefaultInterru
      +                          ptHandler = interruptHandler;
  3587     0671  0872               	movf	EUSART_SetRxInterruptHandler@interruptHandler+1,w
  3588     0672  0020               	movlb	0	; select bank0
  3589     0673  00C1               	movwf	_EUSART_RxDefaultInterruptHandler+1
  3590     0674  0871               	movf	EUSART_SetRxInterruptHandler@interruptHandler,w
  3591     0675  00C0               	movwf	_EUSART_RxDefaultInterruptHandler
  3592     0676                     l432:
  3593     0676  0008               	return
  3594     0677                     __end_of_EUSART_SetRxInterruptHandler:
  3595                           
  3596                           	psect	text14
  3597     0677                     __ptext14:	
  3598 ;; *************** function _EUSART_SetOverrunErrorHandler *****************
  3599 ;; Defined at:
  3600 ;;		line 268 in file "D:\yiming\00work\FR752.X\mcc_generated_files\eusart.c"
  3601 ;; Parameters:    Size  Location     Type
  3602 ;;  interruptHan    2    1[COMMON] PTR FTN()void 
  3603 ;;		 -> EUSART_DefaultOverrunErrorHandler(1), 
  3604 ;; Auto vars:     Size  Location     Type
  3605 ;;		None
  3606 ;; Return value:  Size  Location     Type
  3607 ;;                  1    wreg      void 
  3608 ;; Registers used:
  3609 ;;		wreg
  3610 ;; Tracked objects:
  3611 ;;		On entry : 0/0
  3612 ;;		On exit  : 0/0
  3613 ;;		Unchanged: 0/0
  3614 ;; Data sizes:     COMMON   BANK0   BANK1   BANK2   BANK3   BANK4   BANK5   BANK6
  3615 ;;      Params:         2       0       0       0       0       0       0       0
  3616 ;;      Locals:         0       0       0       0       0       0       0       0
  3617 ;;      Temps:          0       0       0       0       0       0       0       0
  3618 ;;      Totals:         2       0       0       0       0       0       0       0
  3619 ;;Total ram usage:        2 bytes
  3620 ;; Hardware stack levels used: 1
  3621 ;; Hardware stack levels required when called: 4
  3622 ;; This function calls:
  3623 ;;		Nothing
  3624 ;; This function is called by:
  3625 ;;		_EUSART_Initialize
  3626 ;; This function uses a non-reentrant model
  3627 ;;
  3628                           
  3629     0677                     _EUSART_SetOverrunErrorHandler:	
  3630                           ;psect for function _EUSART_SetOverrunErrorHandler
  3631                           
  3632     0677                     l2103:	
  3633                           ;incstack = 0
  3634                           ; Regs used in _EUSART_SetOverrunErrorHandler: [wreg]
  3635                           
  3636                           
  3637                           ;D:\yiming\00work\FR752.X\mcc_generated_files\eusart.c: 269:     EUSART_OverrunErrorHand
      +                          ler = interruptHandler;
  3638     0677  0872               	movf	EUSART_SetOverrunErrorHandler@interruptHandler+1,w
  3639     0678  0020               	movlb	0	; select bank0
  3640     0679  00BD               	movwf	_EUSART_OverrunErrorHandler+1
  3641     067A  0871               	movf	EUSART_SetOverrunErrorHandler@interruptHandler,w
  3642     067B  00BC               	movwf	_EUSART_OverrunErrorHandler
  3643     067C                     l423:
  3644     067C  0008               	return
  3645     067D                     __end_of_EUSART_SetOverrunErrorHandler:
  3646                           
  3647                           	psect	text15
  3648     067D                     __ptext15:	
  3649 ;; *************** function _EUSART_SetFramingErrorHandler *****************
  3650 ;; Defined at:
  3651 ;;		line 264 in file "D:\yiming\00work\FR752.X\mcc_generated_files\eusart.c"
  3652 ;; Parameters:    Size  Location     Type
  3653 ;;  interruptHan    2    1[COMMON] PTR FTN()void 
  3654 ;;		 -> EUSART_DefaultFramingErrorHandler(1), 
  3655 ;; Auto vars:     Size  Location     Type
  3656 ;;		None
  3657 ;; Return value:  Size  Location     Type
  3658 ;;                  1    wreg      void 
  3659 ;; Registers used:
  3660 ;;		wreg
  3661 ;; Tracked objects:
  3662 ;;		On entry : 0/0
  3663 ;;		On exit  : 0/0
  3664 ;;		Unchanged: 0/0
  3665 ;; Data sizes:     COMMON   BANK0   BANK1   BANK2   BANK3   BANK4   BANK5   BANK6
  3666 ;;      Params:         2       0       0       0       0       0       0       0
  3667 ;;      Locals:         0       0       0       0       0       0       0       0
  3668 ;;      Temps:          0       0       0       0       0       0       0       0
  3669 ;;      Totals:         2       0       0       0       0       0       0       0
  3670 ;;Total ram usage:        2 bytes
  3671 ;; Hardware stack levels used: 1
  3672 ;; Hardware stack levels required when called: 4
  3673 ;; This function calls:
  3674 ;;		Nothing
  3675 ;; This function is called by:
  3676 ;;		_EUSART_Initialize
  3677 ;; This function uses a non-reentrant model
  3678 ;;
  3679                           
  3680     067D                     _EUSART_SetFramingErrorHandler:	
  3681                           ;psect for function _EUSART_SetFramingErrorHandler
  3682                           
  3683     067D                     l2101:	
  3684                           ;incstack = 0
  3685                           ; Regs used in _EUSART_SetFramingErrorHandler: [wreg]
  3686                           
  3687                           
  3688                           ;D:\yiming\00work\FR752.X\mcc_generated_files\eusart.c: 265:     EUSART_FramingErrorHand
      +                          ler = interruptHandler;
  3689     067D  0872               	movf	EUSART_SetFramingErrorHandler@interruptHandler+1,w
  3690     067E  0020               	movlb	0	; select bank0
  3691     067F  00BF               	movwf	_EUSART_FramingErrorHandler+1
  3692     0680  0871               	movf	EUSART_SetFramingErrorHandler@interruptHandler,w
  3693     0681  00BE               	movwf	_EUSART_FramingErrorHandler
  3694     0682                     l420:
  3695     0682  0008               	return
  3696     0683                     __end_of_EUSART_SetFramingErrorHandler:
  3697                           
  3698                           	psect	text16
  3699     0683                     __ptext16:	
  3700 ;; *************** function _EUSART_SetErrorHandler *****************
  3701 ;; Defined at:
  3702 ;;		line 272 in file "D:\yiming\00work\FR752.X\mcc_generated_files\eusart.c"
  3703 ;; Parameters:    Size  Location     Type
  3704 ;;  interruptHan    2    1[COMMON] PTR FTN()void 
  3705 ;;		 -> EUSART_DefaultErrorHandler(1), 
  3706 ;; Auto vars:     Size  Location     Type
  3707 ;;		None
  3708 ;; Return value:  Size  Location     Type
  3709 ;;                  1    wreg      void 
  3710 ;; Registers used:
  3711 ;;		wreg
  3712 ;; Tracked objects:
  3713 ;;		On entry : 0/0
  3714 ;;		On exit  : 0/0
  3715 ;;		Unchanged: 0/0
  3716 ;; Data sizes:     COMMON   BANK0   BANK1   BANK2   BANK3   BANK4   BANK5   BANK6
  3717 ;;      Params:         2       0       0       0       0       0       0       0
  3718 ;;      Locals:         0       0       0       0       0       0       0       0
  3719 ;;      Temps:          0       0       0       0       0       0       0       0
  3720 ;;      Totals:         2       0       0       0       0       0       0       0
  3721 ;;Total ram usage:        2 bytes
  3722 ;; Hardware stack levels used: 1
  3723 ;; Hardware stack levels required when called: 4
  3724 ;; This function calls:
  3725 ;;		Nothing
  3726 ;; This function is called by:
  3727 ;;		_EUSART_Initialize
  3728 ;; This function uses a non-reentrant model
  3729 ;;
  3730                           
  3731     0683                     _EUSART_SetErrorHandler:	
  3732                           ;psect for function _EUSART_SetErrorHandler
  3733                           
  3734     0683                     l2105:	
  3735                           ;incstack = 0
  3736                           ; Regs used in _EUSART_SetErrorHandler: [wreg]
  3737                           
  3738                           
  3739                           ;D:\yiming\00work\FR752.X\mcc_generated_files\eusart.c: 273:     EUSART_ErrorHandler = i
      +                          nterruptHandler;
  3740     0683  0872               	movf	EUSART_SetErrorHandler@interruptHandler+1,w
  3741     0684  0020               	movlb	0	; select bank0
  3742     0685  00BB               	movwf	_EUSART_ErrorHandler+1
  3743     0686  0871               	movf	EUSART_SetErrorHandler@interruptHandler,w
  3744     0687  00BA               	movwf	_EUSART_ErrorHandler
  3745     0688                     l426:
  3746     0688  0008               	return
  3747     0689                     __end_of_EUSART_SetErrorHandler:
  3748                           
  3749                           	psect	text17
  3750     05F7                     __ptext17:	
  3751 ;; *************** function _EPWM1_Initialize *****************
  3752 ;; Defined at:
  3753 ;;		line 64 in file "D:\yiming\00work\FR752.X\mcc_generated_files\epwm1.c"
  3754 ;; Parameters:    Size  Location     Type
  3755 ;;		None
  3756 ;; Auto vars:     Size  Location     Type
  3757 ;;		None
  3758 ;; Return value:  Size  Location     Type
  3759 ;;                  1    wreg      void 
  3760 ;; Registers used:
  3761 ;;		wreg, status,2, status,0
  3762 ;; Tracked objects:
  3763 ;;		On entry : 0/0
  3764 ;;		On exit  : 0/0
  3765 ;;		Unchanged: 0/0
  3766 ;; Data sizes:     COMMON   BANK0   BANK1   BANK2   BANK3   BANK4   BANK5   BANK6
  3767 ;;      Params:         0       0       0       0       0       0       0       0
  3768 ;;      Locals:         0       0       0       0       0       0       0       0
  3769 ;;      Temps:          0       0       0       0       0       0       0       0
  3770 ;;      Totals:         0       0       0       0       0       0       0       0
  3771 ;;Total ram usage:        0 bytes
  3772 ;; Hardware stack levels used: 1
  3773 ;; Hardware stack levels required when called: 4
  3774 ;; This function calls:
  3775 ;;		Nothing
  3776 ;; This function is called by:
  3777 ;;		_SYSTEM_Initialize
  3778 ;; This function uses a non-reentrant model
  3779 ;;
  3780                           
  3781     05F7                     _EPWM1_Initialize:	
  3782                           ;psect for function _EPWM1_Initialize
  3783                           
  3784     05F7                     l1583:	
  3785                           ;incstack = 0
  3786                           ; Regs used in _EPWM1_Initialize: [wreg+status,2+status,0]
  3787                           
  3788                           
  3789                           ;D:\yiming\00work\FR752.X\mcc_generated_files\epwm1.c: 69:  CCP1CON = 0x0C;
  3790     05F7  300C               	movlw	12
  3791     05F8  0025               	movlb	5	; select bank5
  3792     05F9  0093               	movwf	19	;volatile
  3793     05FA                     l1585:
  3794                           
  3795                           ;D:\yiming\00work\FR752.X\mcc_generated_files\epwm1.c: 72:  ECCP1AS = 0x00;
  3796     05FA  0195               	clrf	21	;volatile
  3797     05FB                     l1587:
  3798                           
  3799                           ;D:\yiming\00work\FR752.X\mcc_generated_files\epwm1.c: 75:  PWM1CON = 0x80;
  3800     05FB  3080               	movlw	128
  3801     05FC  0094               	movwf	20	;volatile
  3802     05FD                     l1589:
  3803                           
  3804                           ;D:\yiming\00work\FR752.X\mcc_generated_files\epwm1.c: 78:  PSTR1CON = 0x01;
  3805     05FD  3001               	movlw	1
  3806     05FE  0096               	movwf	22	;volatile
  3807     05FF                     l1591:
  3808                           
  3809                           ;D:\yiming\00work\FR752.X\mcc_generated_files\epwm1.c: 81:  CCPR1H = 0x00;
  3810     05FF  0192               	clrf	18	;volatile
  3811     0600                     l1593:
  3812                           
  3813                           ;D:\yiming\00work\FR752.X\mcc_generated_files\epwm1.c: 84:  CCPR1L = 0x00;
  3814     0600  0191               	clrf	17	;volatile
  3815     0601                     l1595:
  3816                           
  3817                           ;D:\yiming\00work\FR752.X\mcc_generated_files\epwm1.c: 87:  CCPTMRS0bits.C1TSEL = 0x0;
  3818     0601  30FC               	movlw	-4
  3819     0602  059E               	andwf	30,f	;volatile
  3820     0603                     l285:
  3821     0603  0008               	return
  3822     0604                     __end_of_EPWM1_Initialize:
  3823                           
  3824                           	psect	text18
  3825     0054                     __ptext18:	
  3826 ;; *************** function _LIN_handler *****************
  3827 ;; Defined at:
  3828 ;;		line 93 in file "D:\yiming\00work\FR752.X\mcc_generated_files\LINDrivers\lin_slave.c"
  3829 ;; Parameters:    Size  Location     Type
  3830 ;;		None
  3831 ;; Auto vars:     Size  Location     Type
  3832 ;;		None
  3833 ;; Return value:  Size  Location     Type
  3834 ;;                  1    wreg      enum E3111
  3835 ;; Registers used:
  3836 ;;		wreg, fsr0l, fsr0h, fsr1l, fsr1h, status,2, status,0, pclath, cstack
  3837 ;; Tracked objects:
  3838 ;;		On entry : 0/0
  3839 ;;		On exit  : 0/0
  3840 ;;		Unchanged: 0/0
  3841 ;; Data sizes:     COMMON   BANK0   BANK1   BANK2   BANK3   BANK4   BANK5   BANK6
  3842 ;;      Params:         0       0       0       0       0       0       0       0
  3843 ;;      Locals:         0       0       0       0       0       0       0       0
  3844 ;;      Temps:          0       0       2       0       0       0       0       0
  3845 ;;      Totals:         0       0       2       0       0       0       0       0
  3846 ;;Total ram usage:        2 bytes
  3847 ;; Hardware stack levels used: 1
  3848 ;; Hardware stack levels required when called: 7
  3849 ;; This function calls:
  3850 ;;		NULL
  3851 ;;		_EUSART_Read
  3852 ;;		_EUSART_is_rx_ready
  3853 ;;		_LIN_breakCheck
  3854 ;;		_LIN_checkPID
  3855 ;;		_LIN_disableRx
  3856 ;;		_LIN_enableRx
  3857 ;;		_LIN_getChecksum
  3858 ;;		_LIN_getFromTable
  3859 ;;		_LIN_queuePacket
  3860 ;;		_LIN_startTimer
  3861 ;;		_LIN_stopTimer
  3862 ;;		_memset
  3863 ;;		_processLIN
  3864 ;; This function is called by:
  3865 ;;		_main
  3866 ;; This function uses a non-reentrant model
  3867 ;;
  3868                           
  3869     0054                     _LIN_handler:	
  3870                           ;psect for function _LIN_handler
  3871                           
  3872     0054                     l2581:	
  3873                           ;incstack = 0
  3874                           ; Regs used in _LIN_handler: [wreg-fsr1h+status,2+status,0+pclath+cstack]
  3875                           
  3876                           
  3877                           ;D:\yiming\00work\FR752.X\mcc_generated_files\LINDrivers\lin_slave.c: 94:   static lin_r
      +                          x_state_t LIN_rxState = LIN_RX_IDLE;;D:\yiming\00work\FR752.X\mcc_generated_files\LINDri
      +                          vers\lin_slave.c: 95:   static uint8_t rxDataIndex = 0;;D:\yiming\00work\FR752.X\mcc_gen
      +                          erated_files\LINDrivers\lin_slave.c: 97:   if (LIN_rxInProgress == 1) {
  3878     0054  0020               	movlb	0	; select bank0
  3879     0055  0353               	decf	_LIN_rxInProgress,w
  3880     0056  1D03               	btfss	3,2
  3881     0057  2859               	goto	u1981
  3882     0058  285A               	goto	u1980
  3883     0059                     u1981:
  3884     0059  2948               	goto	l2673
  3885     005A                     u1980:
  3886     005A                     l2583:
  3887                           
  3888                           ;D:\yiming\00work\FR752.X\mcc_generated_files\LINDrivers\lin_slave.c: 98:     if (LIN_ti
      +                          merRunning == 0) {
  3889     005A  0851               	movf	_LIN_timerRunning,w
  3890     005B  1D03               	btfss	3,2
  3891     005C  285E               	goto	u1991
  3892     005D  285F               	goto	u1990
  3893     005E                     u1991:
  3894     005E  2948               	goto	l2673
  3895     005F                     u1990:
  3896     005F                     l2585:
  3897                           
  3898                           ;D:\yiming\00work\FR752.X\mcc_generated_files\LINDrivers\lin_slave.c: 100:       LIN_rxS
      +                          tate = LIN_RX_ERROR;
  3899     005F  3008               	movlw	8
  3900     0060  00CF               	movwf	LIN_handler@LIN_rxState
  3901     0061  2948               	goto	l2673
  3902     0062                     l2587:
  3903                           
  3904                           ;D:\yiming\00work\FR752.X\mcc_generated_files\LINDrivers\lin_slave.c: 106:     if (EUSAR
      +                          T_is_rx_ready() > 0) {
  3905     0062  3186  2628  3180   	fcall	_EUSART_is_rx_ready
  3906     0065  3A00               	xorlw	0
  3907     0066  1903               	skipnz
  3908     0067  2869               	goto	u2001
  3909     0068  286A               	goto	u2000
  3910     0069                     u2001:
  3911     0069  2971               	goto	l207
  3912     006A                     u2000:
  3913     006A                     l2589:
  3914                           
  3915                           ;D:\yiming\00work\FR752.X\mcc_generated_files\LINDrivers\lin_slave.c: 108:       LIN_sta
      +                          rtTimer(20);
  3916     006A  3014               	movlw	20
  3917     006B  3186  2604  3180   	fcall	_LIN_startTimer
  3918     006E                     l2591:
  3919                           
  3920                           ;D:\yiming\00work\FR752.X\mcc_generated_files\LINDrivers\lin_slave.c: 109:       LIN_rxI
      +                          nProgress = 1;
  3921     006E  0020               	movlb	0	; select bank0
  3922     006F  01D3               	clrf	_LIN_rxInProgress
  3923     0070  0AD3               	incf	_LIN_rxInProgress,f
  3924     0071                     l2593:
  3925                           
  3926                           ;D:\yiming\00work\FR752.X\mcc_generated_files\LINDrivers\lin_slave.c: 110:       LIN_rxS
      +                          tate = LIN_RX_BREAK;
  3927     0071  01CF               	clrf	LIN_handler@LIN_rxState
  3928     0072  0ACF               	incf	LIN_handler@LIN_rxState,f
  3929     0073  2971               	goto	l207
  3930     0074                     l2595:
  3931                           
  3932                           ;D:\yiming\00work\FR752.X\mcc_generated_files\LINDrivers\lin_slave.c: 114:     if (EUSAR
      +                          T_is_rx_ready() > 0) {
  3933     0074  3186  2628  3180   	fcall	_EUSART_is_rx_ready
  3934     0077  3A00               	xorlw	0
  3935     0078  1903               	skipnz
  3936     0079  287B               	goto	u2011
  3937     007A  287C               	goto	u2010
  3938     007B                     u2011:
  3939     007B  2971               	goto	l207
  3940     007C                     u2010:
  3941     007C                     l2597:
  3942                           
  3943                           ;D:\yiming\00work\FR752.X\mcc_generated_files\LINDrivers\lin_slave.c: 115:       if (LIN
      +                          _breakCheck() == 1) {
  3944     007C  3185  25B9  3180   	fcall	_LIN_breakCheck
  3945     007F  3A01               	xorlw	1
  3946     0080  1D03               	skipz
  3947     0081  2883               	goto	u2021
  3948     0082  2884               	goto	u2020
  3949     0083                     u2021:
  3950     0083  2888               	goto	l2601
  3951     0084                     u2020:
  3952     0084                     l2599:
  3953                           
  3954                           ;D:\yiming\00work\FR752.X\mcc_generated_files\LINDrivers\lin_slave.c: 116:         LIN_r
      +                          xState = LIN_RX_SYNC;
  3955     0084  3002               	movlw	2
  3956     0085  0020               	movlb	0	; select bank0
  3957     0086  00CF               	movwf	LIN_handler@LIN_rxState
  3958                           
  3959                           ;D:\yiming\00work\FR752.X\mcc_generated_files\LINDrivers\lin_slave.c: 117:       } else 
      +                          {
  3960     0087  2971               	goto	l207
  3961     0088                     l2601:
  3962                           
  3963                           ;D:\yiming\00work\FR752.X\mcc_generated_files\LINDrivers\lin_slave.c: 118:         LIN_r
      +                          xState = LIN_RX_ERROR;
  3964     0088  3008               	movlw	8
  3965     0089  0020               	movlb	0	; select bank0
  3966     008A  00CF               	movwf	LIN_handler@LIN_rxState
  3967     008B  2971               	goto	l207
  3968     008C                     l2603:
  3969                           
  3970                           ;D:\yiming\00work\FR752.X\mcc_generated_files\LINDrivers\lin_slave.c: 123:     if (EUSAR
      +                          T_is_rx_ready() > 0) {
  3971     008C  3186  2628  3180   	fcall	_EUSART_is_rx_ready
  3972     008F  3A00               	xorlw	0
  3973     0090  1903               	skipnz
  3974     0091  2893               	goto	u2031
  3975     0092  2894               	goto	u2030
  3976     0093                     u2031:
  3977     0093  2971               	goto	l207
  3978     0094                     u2030:
  3979     0094                     l2605:
  3980                           
  3981                           ;D:\yiming\00work\FR752.X\mcc_generated_files\LINDrivers\lin_slave.c: 124:       if (EUS
      +                          ART_Read() == 0x55) {
  3982     0094  3184  244A  3180   	fcall	_EUSART_Read
  3983     0097  3A55               	xorlw	85
  3984     0098  1D03               	skipz
  3985     0099  289B               	goto	u2041
  3986     009A  289C               	goto	u2040
  3987     009B                     u2041:
  3988     009B  2888               	goto	l2601
  3989     009C                     u2040:
  3990     009C                     l2607:
  3991                           
  3992                           ;D:\yiming\00work\FR752.X\mcc_generated_files\LINDrivers\lin_slave.c: 125:         LIN_r
      +                          xState = LIN_RX_PID;
  3993     009C  3003               	movlw	3
  3994     009D  0020               	movlb	0	; select bank0
  3995     009E  00CF               	movwf	LIN_handler@LIN_rxState
  3996                           
  3997                           ;D:\yiming\00work\FR752.X\mcc_generated_files\LINDrivers\lin_slave.c: 126:       } else 
      +                          {
  3998     009F  2971               	goto	l207
  3999     00A0                     l2611:
  4000                           
  4001                           ;D:\yiming\00work\FR752.X\mcc_generated_files\LINDrivers\lin_slave.c: 132:     if (EUSAR
      +                          T_is_rx_ready() > 0) {
  4002     00A0  3186  2628  3180   	fcall	_EUSART_is_rx_ready
  4003     00A3  3A00               	xorlw	0
  4004     00A4  1903               	skipnz
  4005     00A5  28A7               	goto	u2051
  4006     00A6  28A8               	goto	u2050
  4007     00A7                     u2051:
  4008     00A7  2971               	goto	l207
  4009     00A8                     u2050:
  4010     00A8                     l2613:
  4011                           
  4012                           ;D:\yiming\00work\FR752.X\mcc_generated_files\LINDrivers\lin_slave.c: 133:       LIN_pac
      +                          ket.PID = EUSART_Read();
  4013     00A8  3184  244A  3180   	fcall	_EUSART_Read
  4014     00AB  0020               	movlb	0	; select bank0
  4015     00AC  00D6               	movwf	_LIN_packet
  4016     00AD                     l2615:
  4017                           
  4018                           ;D:\yiming\00work\FR752.X\mcc_generated_files\LINDrivers\lin_slave.c: 136:       if (LIN
      +                          _checkPID(LIN_packet.PID) == 0) {
  4019     00AD  0856               	movf	_LIN_packet,w
  4020     00AE  3185  252D  3180   	fcall	_LIN_checkPID
  4021     00B1  3A00               	xorlw	0
  4022     00B2  1D03               	skipz
  4023     00B3  28B5               	goto	u2061
  4024     00B4  28B6               	goto	u2060
  4025     00B5                     u2061:
  4026     00B5  28B7               	goto	l2619
  4027     00B6                     u2060:
  4028     00B6  2888               	goto	l2601
  4029     00B7                     l2619:
  4030                           
  4031                           ;D:\yiming\00work\FR752.X\mcc_generated_files\LINDrivers\lin_slave.c: 140:       LIN_pac
      +                          ket.type = LIN_getFromTable(LIN_packet.PID, TYPE);
  4032     00B7  01F1               	clrf	LIN_getFromTable@param
  4033     00B8  0AF1               	incf	LIN_getFromTable@param,f
  4034     00B9  0020               	movlb	0	; select bank0
  4035     00BA  0856               	movf	_LIN_packet,w
  4036     00BB  3183  230E  3180   	fcall	_LIN_getFromTable
  4037     00BE  0020               	movlb	0	; select bank0
  4038     00BF  00E0               	movwf	_LIN_packet+10
  4039     00C0                     l2621:
  4040                           
  4041                           ;D:\yiming\00work\FR752.X\mcc_generated_files\LINDrivers\lin_slave.c: 141:       if (LIN
      +                          _packet.type == RECEIVE) {
  4042     00C0  0360               	decf	_LIN_packet+10,w
  4043     00C1  1D03               	btfss	3,2
  4044     00C2  28C4               	goto	u2071
  4045     00C3  28C5               	goto	u2070
  4046     00C4                     u2071:
  4047     00C4  28D0               	goto	l2627
  4048     00C5                     u2070:
  4049     00C5                     l2623:
  4050                           
  4051                           ;D:\yiming\00work\FR752.X\mcc_generated_files\LINDrivers\lin_slave.c: 142:         LIN_p
      +                          acket.length = LIN_getFromTable(LIN_packet.PID, LENGTH);
  4052     00C5  3002               	movlw	2
  4053     00C6  00F1               	movwf	LIN_getFromTable@param
  4054     00C7  0856               	movf	_LIN_packet,w
  4055     00C8  3183  230E  3180   	fcall	_LIN_getFromTable
  4056     00CB  0020               	movlb	0	; select bank0
  4057     00CC  00E1               	movwf	_LIN_packet+11
  4058     00CD                     l2625:
  4059                           
  4060                           ;D:\yiming\00work\FR752.X\mcc_generated_files\LINDrivers\lin_slave.c: 143:         LIN_r
      +                          xState = LIN_RX_DATA;
  4061     00CD  3004               	movlw	4
  4062     00CE  00CF               	movwf	LIN_handler@LIN_rxState
  4063                           
  4064                           ;D:\yiming\00work\FR752.X\mcc_generated_files\LINDrivers\lin_slave.c: 144:       } else 
      +                          {
  4065     00CF  2971               	goto	l207
  4066     00D0                     l2627:
  4067                           
  4068                           ;D:\yiming\00work\FR752.X\mcc_generated_files\LINDrivers\lin_slave.c: 145:         LIN_d
      +                          isableRx();
  4069     00D0  3186  2698  3180   	fcall	_LIN_disableRx
  4070     00D3                     l2629:
  4071                           
  4072                           ;D:\yiming\00work\FR752.X\mcc_generated_files\LINDrivers\lin_slave.c: 146:         LIN_r
      +                          xState = LIN_RX_TX_DATA;
  4073     00D3  3006               	movlw	6
  4074     00D4  0020               	movlb	0	; select bank0
  4075     00D5  00CF               	movwf	LIN_handler@LIN_rxState
  4076     00D6  2971               	goto	l207
  4077     00D7                     l2631:
  4078                           
  4079                           ;D:\yiming\00work\FR752.X\mcc_generated_files\LINDrivers\lin_slave.c: 151:     if (EUSAR
      +                          T_is_rx_ready() > 0) {
  4080     00D7  3186  2628  3180   	fcall	_EUSART_is_rx_ready
  4081     00DA  3A00               	xorlw	0
  4082     00DB  1903               	skipnz
  4083     00DC  28DE               	goto	u2081
  4084     00DD  28DF               	goto	u2080
  4085     00DE                     u2081:
  4086     00DE  2971               	goto	l207
  4087     00DF                     u2080:
  4088     00DF                     l2633:
  4089                           
  4090                           ;D:\yiming\00work\FR752.X\mcc_generated_files\LINDrivers\lin_slave.c: 152:       LIN_pac
      +                          ket.data[rxDataIndex] = EUSART_Read();
  4091     00DF  3184  244A  3180   	fcall	_EUSART_Read
  4092     00E2  0021               	movlb	1	; select bank1
  4093     00E3  00A8               	movwf	??_LIN_handler^(0+128)
  4094     00E4  0020               	movlb	0	; select bank0
  4095     00E5  084E               	movf	LIN_handler@rxDataIndex,w
  4096     00E6  3E57               	addlw	(low ((_LIN_packet| 0+1)))& (0+255)
  4097     00E7  0086               	movwf	6
  4098     00E8  0187               	clrf	7
  4099     00E9  0021               	movlb	1	; select bank1
  4100     00EA  0828               	movf	??_LIN_handler^(0+128),w
  4101     00EB  0081               	movwf	1
  4102     00EC                     l2635:
  4103                           
  4104                           ;D:\yiming\00work\FR752.X\mcc_generated_files\LINDrivers\lin_slave.c: 153:       if (++r
      +                          xDataIndex >= LIN_packet.length) {
  4105     00EC  3001               	movlw	1
  4106     00ED  00A8               	movwf	??_LIN_handler^(0+128)
  4107     00EE  0828               	movf	??_LIN_handler^(0+128),w
  4108     00EF  0020               	movlb	0	; select bank0
  4109     00F0  07CE               	addwf	LIN_handler@rxDataIndex,f
  4110     00F1  0861               	movf	_LIN_packet+11,w
  4111     00F2  024E               	subwf	LIN_handler@rxDataIndex,w
  4112     00F3  1C03               	skipc
  4113     00F4  28F6               	goto	u2091
  4114     00F5  28F7               	goto	u2090
  4115     00F6                     u2091:
  4116     00F6  2971               	goto	l207
  4117     00F7                     u2090:
  4118     00F7                     l2637:
  4119                           
  4120                           ;D:\yiming\00work\FR752.X\mcc_generated_files\LINDrivers\lin_slave.c: 155:         rxDat
      +                          aIndex = 0;
  4121     00F7  01CE               	clrf	LIN_handler@rxDataIndex
  4122     00F8                     l2639:
  4123                           
  4124                           ;D:\yiming\00work\FR752.X\mcc_generated_files\LINDrivers\lin_slave.c: 156:         LIN_r
      +                          xState = LIN_RX_CHECKSUM;
  4125     00F8  3005               	movlw	5
  4126     00F9  00CF               	movwf	LIN_handler@LIN_rxState
  4127     00FA  2971               	goto	l207
  4128     00FB                     l2641:
  4129                           
  4130                           ;D:\yiming\00work\FR752.X\mcc_generated_files\LINDrivers\lin_slave.c: 161:     if (EUSAR
      +                          T_is_rx_ready() > 0) {
  4131     00FB  3186  2628  3180   	fcall	_EUSART_is_rx_ready
  4132     00FE  3A00               	xorlw	0
  4133     00FF  1903               	skipnz
  4134     0100  2902               	goto	u2101
  4135     0101  2903               	goto	u2100
  4136     0102                     u2101:
  4137     0102  2971               	goto	l207
  4138     0103                     u2100:
  4139     0103                     l2643:
  4140                           
  4141                           ;D:\yiming\00work\FR752.X\mcc_generated_files\LINDrivers\lin_slave.c: 162:       LIN_pac
      +                          ket.checksum = EUSART_Read();
  4142     0103  3184  244A  3180   	fcall	_EUSART_Read
  4143     0106  0020               	movlb	0	; select bank0
  4144     0107  00DF               	movwf	_LIN_packet+9
  4145                           
  4146                           ;D:\yiming\00work\FR752.X\mcc_generated_files\LINDrivers\lin_slave.c: 163:       if (LIN
      +                          _packet.checksum !=
  4147     0108  0856               	movf	_LIN_packet,w
  4148     0109  00F1               	movwf	LIN_getChecksum@pid
  4149     010A  3057               	movlw	(low ((_LIN_packet| 0+1)))& (0+255)
  4150     010B  00F2               	movwf	LIN_getChecksum@data
  4151     010C  0861               	movf	_LIN_packet+11,w
  4152     010D  3183  23EF  3180   	fcall	_LIN_getChecksum
  4153     0110  0020               	movlb	0	; select bank0
  4154     0111  065F               	xorwf	_LIN_packet+9,w
  4155     0112  1903               	skipnz
  4156     0113  2915               	goto	u2111
  4157     0114  2916               	goto	u2110
  4158     0115                     u2111:
  4159     0115  2917               	goto	l2647
  4160     0116                     u2110:
  4161     0116  2888               	goto	l2601
  4162     0117                     l2647:
  4163                           
  4164                           ;D:\yiming\00work\FR752.X\mcc_generated_files\LINDrivers\lin_slave.c: 167:         LIN_r
      +                          xState = LIN_RX_RDY;
  4165     0117  3007               	movlw	7
  4166     0118  00CF               	movwf	LIN_handler@LIN_rxState
  4167     0119  2971               	goto	l207
  4168     011A                     l2649:
  4169                           
  4170                           ;D:\yiming\00work\FR752.X\mcc_generated_files\LINDrivers\lin_slave.c: 172:     LIN_queue
      +                          Packet(LIN_packet.PID);
  4171     011A  0020               	movlb	0	; select bank0
  4172     011B  0856               	movf	_LIN_packet,w
  4173     011C  3182  22A3  3180   	fcall	_LIN_queuePacket
  4174     011F                     l2651:
  4175                           
  4176                           ;D:\yiming\00work\FR752.X\mcc_generated_files\LINDrivers\lin_slave.c: 173:     LIN_rxSta
      +                          te = LIN_RX_RDY;
  4177     011F  3007               	movlw	7
  4178     0120  0020               	movlb	0	; select bank0
  4179     0121  00CF               	movwf	LIN_handler@LIN_rxState
  4180     0122                     l2653:
  4181                           
  4182                           ;D:\yiming\00work\FR752.X\mcc_generated_files\LINDrivers\lin_slave.c: 175:     LIN_proce
      +                          ssData();
  4183     0122  0020               	movlb	0	; select bank0
  4184     0123  0847               	movf	_LIN_processData+1,w
  4185     0124  008A               	movwf	10
  4186     0125  0846               	movf	_LIN_processData,w
  4187     0126  000A               	callw
  4188     0127  3180               	pagesel	$
  4189     0128                     l2655:
  4190                           
  4191                           ;D:\yiming\00work\FR752.X\mcc_generated_files\LINDrivers\lin_slave.c: 177:     LIN_stopT
      +                          imer();
  4192     0128  3186  2689  3180   	fcall	_LIN_stopTimer
  4193     012B                     l2657:
  4194                           
  4195                           ;D:\yiming\00work\FR752.X\mcc_generated_files\LINDrivers\lin_slave.c: 178:     rxDataInd
      +                          ex = 0;
  4196     012B  0020               	movlb	0	; select bank0
  4197     012C  01CE               	clrf	LIN_handler@rxDataIndex
  4198     012D                     l2659:
  4199                           
  4200                           ;D:\yiming\00work\FR752.X\mcc_generated_files\LINDrivers\lin_slave.c: 179:     LIN_rxInP
      +                          rogress = 0;
  4201     012D  01D3               	clrf	_LIN_rxInProgress
  4202     012E                     l2661:
  4203                           
  4204                           ;D:\yiming\00work\FR752.X\mcc_generated_files\LINDrivers\lin_slave.c: 180:     memset(LI
      +                          N_packet.rawPacket, 0,
  4205     012E  3000               	movlw	0
  4206     012F  00F1               	movwf	memset@c
  4207     0130  00F2               	movwf	memset@c+1
  4208     0131  300D               	movlw	13
  4209     0132  00F3               	movwf	memset@n
  4210     0133  3000               	movlw	0
  4211     0134  00F4               	movwf	memset@n+1
  4212     0135  3056               	movlw	(low (_LIN_packet| 0))& (0+255)
  4213     0136  3185  2513  3180   	fcall	_memset
  4214     0139                     l2663:
  4215                           
  4216                           ;D:\yiming\00work\FR752.X\mcc_generated_files\LINDrivers\lin_slave.c: 183:     if (TXSTA
      +                          bits.TRMT) {
  4217     0139  0023               	movlb	3	; select bank3
  4218     013A  1C9E               	btfss	30,1	;volatile
  4219     013B  293D               	goto	u2121
  4220     013C  293E               	goto	u2120
  4221     013D                     u2121:
  4222     013D  2944               	goto	l2669
  4223     013E                     u2120:
  4224     013E                     l2665:
  4225                           
  4226                           ;D:\yiming\00work\FR752.X\mcc_generated_files\LINDrivers\lin_slave.c: 184:       LIN_ena
      +                          bleRx();
  4227     013E  3186  2693  3180   	fcall	_LIN_enableRx
  4228     0141                     l2667:
  4229                           
  4230                           ;D:\yiming\00work\FR752.X\mcc_generated_files\LINDrivers\lin_slave.c: 185:       LIN_rxS
      +                          tate = LIN_RX_IDLE;
  4231     0141  0020               	movlb	0	; select bank0
  4232     0142  01CF               	clrf	LIN_handler@LIN_rxState
  4233                           
  4234                           ;D:\yiming\00work\FR752.X\mcc_generated_files\LINDrivers\lin_slave.c: 186:     } else {
  4235     0143  2971               	goto	l207
  4236     0144                     l2669:
  4237                           
  4238                           ;D:\yiming\00work\FR752.X\mcc_generated_files\LINDrivers\lin_slave.c: 187:       LIN_rxS
      +                          tate = LIN_RX_WAIT;
  4239     0144  3009               	movlw	9
  4240     0145  0020               	movlb	0	; select bank0
  4241     0146  00CF               	movwf	LIN_handler@LIN_rxState
  4242     0147  2971               	goto	l207
  4243     0148                     l2673:
  4244     0148  084F               	movf	LIN_handler@LIN_rxState,w
  4245     0149  0021               	movlb	1	; select bank1
  4246     014A  00A8               	movwf	??_LIN_handler^(0+128)
  4247     014B  01A9               	clrf	(??_LIN_handler^(0+128)+1)
  4248                           
  4249                           ; Switch on 2 bytes has been partitioned into a top level switch of size 1, and 1 sub-sw
      +                          itches
  4250                           ; Switch size 1, requested type "simple"
  4251                           ; Number of cases is 1, Range of values is 0 to 0
  4252                           ; switch strategies available:
  4253                           ; Name         Instructions Cycles
  4254                           ; simple_byte            4     3 (average)
  4255                           ; direct_byte            8     6 (fixed)
  4256                           ; jumptable            260     6 (fixed)
  4257                           ;	Chosen strategy is simple_byte
  4258     014C  0829               	movf	(??_LIN_handler+1)^(0+128),w
  4259     014D  3A00               	xorlw	0	; case 0
  4260     014E  1903               	skipnz
  4261     014F  2951               	goto	l2759
  4262     0150  2971               	goto	l207
  4263     0151                     l2759:
  4264                           
  4265                           ; Switch size 1, requested type "simple"
  4266                           ; Number of cases is 10, Range of values is 0 to 9
  4267                           ; switch strategies available:
  4268                           ; Name         Instructions Cycles
  4269                           ; direct_byte           26     6 (fixed)
  4270                           ; simple_byte           31    16 (average)
  4271                           ; jumptable            260     6 (fixed)
  4272                           ;	Chosen strategy is simple_byte
  4273     0151  0828               	movf	??_LIN_handler^(0+128),w
  4274     0152  3A00               	xorlw	0	; case 0
  4275     0153  1903               	skipnz
  4276     0154  2862               	goto	l2587
  4277     0155  3A01               	xorlw	1	; case 1
  4278     0156  1903               	skipnz
  4279     0157  2874               	goto	l2595
  4280     0158  3A03               	xorlw	3	; case 2
  4281     0159  1903               	skipnz
  4282     015A  288C               	goto	l2603
  4283     015B  3A01               	xorlw	1	; case 3
  4284     015C  1903               	skipnz
  4285     015D  28A0               	goto	l2611
  4286     015E  3A07               	xorlw	7	; case 4
  4287     015F  1903               	skipnz
  4288     0160  28D7               	goto	l2631
  4289     0161  3A01               	xorlw	1	; case 5
  4290     0162  1903               	skipnz
  4291     0163  28FB               	goto	l2641
  4292     0164  3A03               	xorlw	3	; case 6
  4293     0165  1903               	skipnz
  4294     0166  291A               	goto	l2649
  4295     0167  3A01               	xorlw	1	; case 7
  4296     0168  1903               	skipnz
  4297     0169  2922               	goto	l2653
  4298     016A  3A0F               	xorlw	15	; case 8
  4299     016B  1903               	skipnz
  4300     016C  2928               	goto	l2655
  4301     016D  3A01               	xorlw	1	; case 9
  4302     016E  1903               	skipnz
  4303     016F  2939               	goto	l2663
  4304     0170  2971               	goto	l207
  4305     0171                     l207:
  4306     0171  0008               	return
  4307     0172                     __end_of_LIN_handler:
  4308                           
  4309                           	psect	text19
  4310     0172                     __ptext19:	
  4311 ;; *************** function _processLIN *****************
  4312 ;; Defined at:
  4313 ;;		line 102 in file "D:\yiming\00work\FR752.X\mcc_generated_files\LINDrivers\lin_app.c"
  4314 ;; Parameters:    Size  Location     Type
  4315 ;;		None
  4316 ;; Auto vars:     Size  Location     Type
  4317 ;;  tempRxData      8    1[BANK0 ] unsigned char [8]
  4318 ;;  cmd             1    0[BANK0 ] unsigned char 
  4319 ;; Return value:  Size  Location     Type
  4320 ;;                  1    wreg      void 
  4321 ;; Registers used:
  4322 ;;		wreg, fsr0l, fsr0h, fsr1l, fsr1h, status,2, status,0, pclath, cstack
  4323 ;; Tracked objects:
  4324 ;;		On entry : 0/0
  4325 ;;		On exit  : 0/0
  4326 ;;		Unchanged: 0/0
  4327 ;; Data sizes:     COMMON   BANK0   BANK1   BANK2   BANK3   BANK4   BANK5   BANK6
  4328 ;;      Params:         0       0       0       0       0       0       0       0
  4329 ;;      Locals:         0       9       0       0       0       0       0       0
  4330 ;;      Temps:          0       0       0       0       0       0       0       0
  4331 ;;      Totals:         0       9       0       0       0       0       0       0
  4332 ;;Total ram usage:        9 bytes
  4333 ;; Hardware stack levels used: 1
  4334 ;; Hardware stack levels required when called: 6
  4335 ;; This function calls:
  4336 ;;		_DRL_OFF
  4337 ;;		_DRL_ON
  4338 ;;		_HIBEAM_OFF
  4339 ;;		_HIBEAM_ON
  4340 ;;		_LIN_getPacket
  4341 ;;		_POS_OFF
  4342 ;;		_POS_ON
  4343 ;; This function is called by:
  4344 ;;		_LIN_Slave_Initialize
  4345 ;;		_LIN_handler
  4346 ;; This function uses a non-reentrant model
  4347 ;;
  4348                           
  4349     0172                     _processLIN:	
  4350                           ;psect for function _processLIN
  4351                           
  4352     0172                     l2119:	
  4353                           ;incstack = 0
  4354                           ; Regs used in _processLIN: [wreg-fsr1h+status,2+status,0+pclath+cstack]
  4355                           
  4356                           
  4357                           ;D:\yiming\00work\FR752.X\mcc_generated_files\LINDrivers\lin_app.c: 103:   uint8_t tempR
      +                          xData[8];;D:\yiming\00work\FR752.X\mcc_generated_files\LINDrivers\lin_app.c: 104:   uint
      +                          8_t cmd;;D:\yiming\00work\FR752.X\mcc_generated_files\LINDrivers\lin_app.c: 106:   cmd =
      +                           LIN_getPacket(tempRxData);
  4358     0172  3064               	movlw	(low (processLIN@tempRxData| 0))& (0+255)
  4359     0173  3184  24DC  3181   	fcall	_LIN_getPacket
  4360     0176  0020               	movlb	0	; select bank0
  4361     0177  00E3               	movwf	processLIN@cmd
  4362     0178                     l2121:
  4363                           
  4364                           ;D:\yiming\00work\FR752.X\mcc_generated_files\LINDrivers\lin_app.c: 107:   lampState.Byt
      +                          e = 0;
  4365     0178  01D5               	clrf	_lampState
  4366     0179                     l2123:
  4367                           
  4368                           ;D:\yiming\00work\FR752.X\mcc_generated_files\LINDrivers\lin_app.c: 108:     lampFlags.B
      +                          yte = 0;
  4369     0179  01D4               	clrf	_lampFlags
  4370                           
  4371                           ;D:\yiming\00work\FR752.X\mcc_generated_files\LINDrivers\lin_app.c: 110:     switch(cmd)
      +                          {
  4372     017A  29F4               	goto	l2185
  4373     017B                     l2125:
  4374                           
  4375                           ;D:\yiming\00work\FR752.X\mcc_generated_files\LINDrivers\lin_app.c: 113:             if 
      +                          ((tempRxData[2] == 0x49) || (tempRxData[2] == 0x51)) {
  4376     017B  3049               	movlw	73
  4377     017C  0666               	xorwf	processLIN@tempRxData+2,w
  4378     017D  1903               	btfsc	3,2
  4379     017E  2980               	goto	u1401
  4380     017F  2981               	goto	u1400
  4381     0180                     u1401:
  4382     0180  2987               	goto	l2129
  4383     0181                     u1400:
  4384     0181                     l2127:
  4385     0181  3051               	movlw	81
  4386     0182  0666               	xorwf	processLIN@tempRxData+2,w
  4387     0183  1D03               	btfss	3,2
  4388     0184  2986               	goto	u1411
  4389     0185  2987               	goto	u1410
  4390     0186                     u1411:
  4391     0186  298B               	goto	l2133
  4392     0187                     u1410:
  4393     0187                     l2129:
  4394                           
  4395                           ;D:\yiming\00work\FR752.X\mcc_generated_files\LINDrivers\lin_app.c: 114:               l
      +                          ampState.mode = eOFF_DRL;
  4396     0187  30F8               	movlw	-8
  4397     0188  05D5               	andwf	_lampState,f
  4398     0189                     l2131:
  4399                           
  4400                           ;D:\yiming\00work\FR752.X\mcc_generated_files\LINDrivers\lin_app.c: 115:               l
      +                          ampFlags.fDRL = 1;
  4401     0189  1454               	bsf	_lampFlags,0
  4402                           
  4403                           ;D:\yiming\00work\FR752.X\mcc_generated_files\LINDrivers\lin_app.c: 116:             } e
      +                          lse if ((tempRxData[2] == 0x0A) || (tempRxData[2] == 0x14) ||
  4404     018A  29D7               	goto	l2171
  4405     018B                     l2133:
  4406     018B  300A               	movlw	10
  4407     018C  0666               	xorwf	processLIN@tempRxData+2,w
  4408     018D  1903               	btfsc	3,2
  4409     018E  2990               	goto	u1421
  4410     018F  2991               	goto	u1420
  4411     0190                     u1421:
  4412     0190  299D               	goto	l2139
  4413     0191                     u1420:
  4414     0191                     l2135:
  4415     0191  3014               	movlw	20
  4416     0192  0666               	xorwf	processLIN@tempRxData+2,w
  4417     0193  1903               	btfsc	3,2
  4418     0194  2996               	goto	u1431
  4419     0195  2997               	goto	u1430
  4420     0196                     u1431:
  4421     0196  299D               	goto	l2139
  4422     0197                     u1430:
  4423     0197                     l2137:
  4424     0197  3012               	movlw	18
  4425     0198  0666               	xorwf	processLIN@tempRxData+2,w
  4426     0199  1D03               	btfss	3,2
  4427     019A  299C               	goto	u1441
  4428     019B  299D               	goto	u1440
  4429     019C                     u1441:
  4430     019C  29A3               	goto	l2143
  4431     019D                     u1440:
  4432     019D                     l2139:
  4433                           
  4434                           ;D:\yiming\00work\FR752.X\mcc_generated_files\LINDrivers\lin_app.c: 117:                
      +                                  (tempRxData[2] == 0x12)) {;D:\yiming\00work\FR752.X\mcc_generated_files\LINDrive
      +                          rs\lin_app.c: 118:               lampState.mode = ePOS;
  4435     019D  0855               	movf	_lampState,w
  4436     019E  39F8               	andlw	-8
  4437     019F  3801               	iorlw	1
  4438     01A0  00D5               	movwf	_lampState
  4439     01A1                     l2141:
  4440                           
  4441                           ;D:\yiming\00work\FR752.X\mcc_generated_files\LINDrivers\lin_app.c: 119:               l
      +                          ampFlags.fPOS = 1;
  4442     01A1  14D4               	bsf	_lampFlags,1
  4443                           
  4444                           ;D:\yiming\00work\FR752.X\mcc_generated_files\LINDrivers\lin_app.c: 120:             } e
      +                          lse if ((tempRxData[2] == 0x8C) ||
  4445     01A2  29D7               	goto	l2171
  4446     01A3                     l2143:
  4447     01A3  308C               	movlw	140
  4448     01A4  0666               	xorwf	processLIN@tempRxData+2,w
  4449     01A5  1903               	btfsc	3,2
  4450     01A6  29A8               	goto	u1451
  4451     01A7  29A9               	goto	u1450
  4452     01A8                     u1451:
  4453     01A8  29B5               	goto	l2149
  4454     01A9                     u1450:
  4455     01A9                     l2145:
  4456     01A9  3094               	movlw	148
  4457     01AA  0666               	xorwf	processLIN@tempRxData+2,w
  4458     01AB  1903               	btfsc	3,2
  4459     01AC  29AE               	goto	u1461
  4460     01AD  29AF               	goto	u1460
  4461     01AE                     u1461:
  4462     01AE  29B5               	goto	l2149
  4463     01AF                     u1460:
  4464     01AF                     l2147:
  4465     01AF  30AC               	movlw	172
  4466     01B0  0666               	xorwf	processLIN@tempRxData+2,w
  4467     01B1  1D03               	btfss	3,2
  4468     01B2  29B4               	goto	u1471
  4469     01B3  29B5               	goto	u1470
  4470     01B4                     u1471:
  4471     01B4  29BB               	goto	l2155
  4472     01B5                     u1470:
  4473     01B5                     l2149:
  4474                           
  4475                           ;D:\yiming\00work\FR752.X\mcc_generated_files\LINDrivers\lin_app.c: 122:                
      +                                  (tempRxData[2] == 0xAC)) {;D:\yiming\00work\FR752.X\mcc_generated_files\LINDrive
      +                          rs\lin_app.c: 123:               lampState.mode = eAUTO_LOBEAM_POS;
  4476     01B5  0855               	movf	_lampState,w
  4477     01B6  39F8               	andlw	-8
  4478     01B7  3803               	iorlw	3
  4479     01B8  00D5               	movwf	_lampState
  4480     01B9                     l2151:
  4481                           
  4482                           ;D:\yiming\00work\FR752.X\mcc_generated_files\LINDrivers\lin_app.c: 124:               l
      +                          ampFlags.fLOBEAM = 1;
  4483     01B9  1554               	bsf	_lampFlags,2
  4484     01BA  29A1               	goto	l2141
  4485     01BB                     l2155:
  4486     01BB  304C               	movlw	76
  4487     01BC  0666               	xorwf	processLIN@tempRxData+2,w
  4488     01BD  1D03               	btfss	3,2
  4489     01BE  29C0               	goto	u1481
  4490     01BF  29C1               	goto	u1480
  4491     01C0                     u1481:
  4492     01C0  29C6               	goto	l2161
  4493     01C1                     u1480:
  4494     01C1                     l2157:
  4495                           
  4496                           ;D:\yiming\00work\FR752.X\mcc_generated_files\LINDrivers\lin_app.c: 127:               l
      +                          ampState.mode = eAUTO_DRL;
  4497     01C1  0855               	movf	_lampState,w
  4498     01C2  39F8               	andlw	-8
  4499     01C3  3802               	iorlw	2
  4500     01C4  00D5               	movwf	_lampState
  4501     01C5  2989               	goto	l2131
  4502     01C6                     l2161:
  4503     01C6  300B               	movlw	11
  4504     01C7  0666               	xorwf	processLIN@tempRxData+2,w
  4505     01C8  1903               	btfsc	3,2
  4506     01C9  29CB               	goto	u1491
  4507     01CA  29CC               	goto	u1490
  4508     01CB                     u1491:
  4509     01CB  29D2               	goto	l2165
  4510     01CC                     u1490:
  4511     01CC                     l2163:
  4512     01CC  3013               	movlw	19
  4513     01CD  0666               	xorwf	processLIN@tempRxData+2,w
  4514     01CE  1D03               	btfss	3,2
  4515     01CF  29D1               	goto	u1501
  4516     01D0  29D2               	goto	u1500
  4517     01D1                     u1501:
  4518     01D1  29D7               	goto	l73
  4519     01D2                     u1500:
  4520     01D2                     l2165:
  4521                           
  4522                           ;D:\yiming\00work\FR752.X\mcc_generated_files\LINDrivers\lin_app.c: 130:                
      +                                  (tempRxData[2] == 0x13)) {;D:\yiming\00work\FR752.X\mcc_generated_files\LINDrive
      +                          rs\lin_app.c: 131:               lampState.mode = eLOBEAM;
  4523     01D2  0855               	movf	_lampState,w
  4524     01D3  39F8               	andlw	-8
  4525     01D4  3804               	iorlw	4
  4526     01D5  00D5               	movwf	_lampState
  4527     01D6  29B9               	goto	l2151
  4528     01D7                     l73:
  4529     01D7                     l2171:
  4530                           
  4531                           ;D:\yiming\00work\FR752.X\mcc_generated_files\LINDrivers\lin_app.c: 137:             if 
      +                          ((tempRxData[1] & 0B10000000) == 0B10000000) {
  4532     01D7  1FE5               	btfss	processLIN@tempRxData+1,7
  4533     01D8  29DA               	goto	u1511
  4534     01D9  29DB               	goto	u1510
  4535     01DA                     u1511:
  4536     01DA  29DE               	goto	l83
  4537     01DB                     u1510:
  4538     01DB                     l2173:
  4539                           
  4540                           ;D:\yiming\00work\FR752.X\mcc_generated_files\LINDrivers\lin_app.c: 138:               l
      +                          ampState.OverTaking = 1;
  4541     01DB  15D5               	bsf	_lampState,3
  4542                           
  4543                           ;D:\yiming\00work\FR752.X\mcc_generated_files\LINDrivers\lin_app.c: 139:               l
      +                          ampFlags.fHIBEAM = 1;
  4544     01DC  15D4               	bsf	_lampFlags,3
  4545                           
  4546                           ;D:\yiming\00work\FR752.X\mcc_generated_files\LINDrivers\lin_app.c: 140:             }
  4547     01DD  29E4               	goto	l84
  4548     01DE                     l83:	
  4549                           ;D:\yiming\00work\FR752.X\mcc_generated_files\LINDrivers\lin_app.c: 143:             els
      +                          e if ((tempRxData[1] & 0B01000000) == 0B01000000) {
  4550                           
  4551     01DE  1F65               	btfss	processLIN@tempRxData+1,6
  4552     01DF  29E1               	goto	u1521
  4553     01E0  29E2               	goto	u1520
  4554     01E1                     u1521:
  4555     01E1  29E4               	goto	l84
  4556     01E2                     u1520:
  4557     01E2                     l2175:
  4558                           
  4559                           ;D:\yiming\00work\FR752.X\mcc_generated_files\LINDrivers\lin_app.c: 144:               l
      +                          ampState.HighBeam = 1;
  4560     01E2  1755               	bsf	_lampState,6
  4561                           
  4562                           ;D:\yiming\00work\FR752.X\mcc_generated_files\LINDrivers\lin_app.c: 145:               l
      +                          ampFlags.fHIBEAM = 1;
  4563     01E3  15D4               	bsf	_lampFlags,3
  4564     01E4                     l84:
  4565                           
  4566                           ;D:\yiming\00work\FR752.X\mcc_generated_files\LINDrivers\lin_app.c: 149:             if 
      +                          ((tempRxData[1] & 0B00010000) == 0B00010000) {
  4567     01E4  1E65               	btfss	processLIN@tempRxData+1,4
  4568     01E5  29E7               	goto	u1531
  4569     01E6  29E8               	goto	u1530
  4570     01E7                     u1531:
  4571     01E7  29EA               	goto	l86
  4572     01E8                     u1530:
  4573     01E8                     l2177:
  4574                           
  4575                           ;D:\yiming\00work\FR752.X\mcc_generated_files\LINDrivers\lin_app.c: 150:               l
      +                          ampState.TurnLeft = 1;
  4576     01E8  1655               	bsf	_lampState,4
  4577                           
  4578                           ;D:\yiming\00work\FR752.X\mcc_generated_files\LINDrivers\lin_app.c: 151:               l
      +                          ampFlags.fLEFT = 1;
  4579     01E9  16D4               	bsf	_lampFlags,5
  4580     01EA                     l86:	
  4581                           ;D:\yiming\00work\FR752.X\mcc_generated_files\LINDrivers\lin_app.c: 152:             }
  4582                           
  4583                           
  4584                           ;D:\yiming\00work\FR752.X\mcc_generated_files\LINDrivers\lin_app.c: 155:             if 
      +                          ((tempRxData[1] & 0B00100000) == 0B00100000) {
  4585     01EA  1EE5               	btfss	processLIN@tempRxData+1,5
  4586     01EB  29ED               	goto	u1541
  4587     01EC  29EE               	goto	u1540
  4588     01ED                     u1541:
  4589     01ED  29F9               	goto	l88
  4590     01EE                     u1540:
  4591     01EE                     l2179:
  4592                           
  4593                           ;D:\yiming\00work\FR752.X\mcc_generated_files\LINDrivers\lin_app.c: 156:               l
      +                          ampState.TurnRight = 1;
  4594     01EE  16D5               	bsf	_lampState,5
  4595                           
  4596                           ;D:\yiming\00work\FR752.X\mcc_generated_files\LINDrivers\lin_app.c: 157:               l
      +                          ampFlags.fRIGHT = 1;
  4597     01EF  1754               	bsf	_lampFlags,6
  4598     01F0  29F9               	goto	l88
  4599     01F1                     l2181:
  4600                           
  4601                           ;D:\yiming\00work\FR752.X\mcc_generated_files\LINDrivers\lin_app.c: 178:             lam
      +                          pState.Byte = 0;
  4602     01F1  01D5               	clrf	_lampState
  4603                           
  4604                           ;D:\yiming\00work\FR752.X\mcc_generated_files\LINDrivers\lin_app.c: 179:             lam
      +                          pFlags.Byte = 0;
  4605     01F2  01D4               	clrf	_lampFlags
  4606                           
  4607                           ;D:\yiming\00work\FR752.X\mcc_generated_files\LINDrivers\lin_app.c: 180:             bre
      +                          ak;
  4608     01F3  29F9               	goto	l88
  4609     01F4                     l2185:
  4610     01F4  0863               	movf	processLIN@cmd,w
  4611                           
  4612                           ; Switch size 1, requested type "simple"
  4613                           ; Number of cases is 1, Range of values is 1 to 1
  4614                           ; switch strategies available:
  4615                           ; Name         Instructions Cycles
  4616                           ; simple_byte            4     3 (average)
  4617                           ; direct_byte           11     9 (fixed)
  4618                           ; jumptable            263     9 (fixed)
  4619                           ;	Chosen strategy is simple_byte
  4620     01F5  3A01               	xorlw	1	; case 1
  4621     01F6  1903               	skipnz
  4622     01F7  297B               	goto	l2125
  4623     01F8  29F1               	goto	l2181
  4624     01F9                     l88:
  4625                           
  4626                           ;D:\yiming\00work\FR752.X\mcc_generated_files\LINDrivers\lin_app.c: 185:     if (lampFla
      +                          gs.fDRL) {
  4627     01F9  1C54               	btfss	_lampFlags,0
  4628     01FA  29FC               	goto	u1551
  4629     01FB  29FD               	goto	u1550
  4630     01FC                     u1551:
  4631     01FC  2A01               	goto	l2189
  4632     01FD                     u1550:
  4633     01FD                     l2187:
  4634                           
  4635                           ;D:\yiming\00work\FR752.X\mcc_generated_files\LINDrivers\lin_app.c: 186:       DRL_ON();
  4636     01FD  3186  2649  3181   	fcall	_DRL_ON
  4637                           
  4638                           ;D:\yiming\00work\FR752.X\mcc_generated_files\LINDrivers\lin_app.c: 187:     } else {
  4639     0200  2A04               	goto	l2191
  4640     0201                     l2189:
  4641                           
  4642                           ;D:\yiming\00work\FR752.X\mcc_generated_files\LINDrivers\lin_app.c: 188:       DRL_OFF()
      +                          ;
  4643     0201  3186  2658  3181   	fcall	_DRL_OFF
  4644     0204                     l2191:
  4645                           
  4646                           ;D:\yiming\00work\FR752.X\mcc_generated_files\LINDrivers\lin_app.c: 191:     if (lampFla
      +                          gs.fPOS) {
  4647     0204  0020               	movlb	0	; select bank0
  4648     0205  1CD4               	btfss	_lampFlags,1
  4649     0206  2A08               	goto	u1561
  4650     0207  2A09               	goto	u1560
  4651     0208                     u1561:
  4652     0208  2A0D               	goto	l2195
  4653     0209                     u1560:
  4654     0209                     l2193:
  4655                           
  4656                           ;D:\yiming\00work\FR752.X\mcc_generated_files\LINDrivers\lin_app.c: 192:       POS_ON();
  4657     0209  3186  2641  3181   	fcall	_POS_ON
  4658                           
  4659                           ;D:\yiming\00work\FR752.X\mcc_generated_files\LINDrivers\lin_app.c: 193:     } else {
  4660     020C  2A10               	goto	l2197
  4661     020D                     l2195:
  4662                           
  4663                           ;D:\yiming\00work\FR752.X\mcc_generated_files\LINDrivers\lin_app.c: 194:       POS_OFF()
      +                          ;
  4664     020D  3186  2651  3181   	fcall	_POS_OFF
  4665     0210                     l2197:
  4666                           
  4667                           ;D:\yiming\00work\FR752.X\mcc_generated_files\LINDrivers\lin_app.c: 198:     if (lampFla
      +                          gs.fHIBEAM) {
  4668     0210  0020               	movlb	0	; select bank0
  4669     0211  1DD4               	btfss	_lampFlags,3
  4670     0212  2A14               	goto	u1571
  4671     0213  2A15               	goto	u1570
  4672     0214                     u1571:
  4673     0214  2A19               	goto	l2201
  4674     0215                     u1570:
  4675     0215                     l2199:
  4676                           
  4677                           ;D:\yiming\00work\FR752.X\mcc_generated_files\LINDrivers\lin_app.c: 199:       HIBEAM_ON
      +                          ();
  4678     0215  3186  26AD  3181   	fcall	_HIBEAM_ON
  4679                           
  4680                           ;D:\yiming\00work\FR752.X\mcc_generated_files\LINDrivers\lin_app.c: 200:     } else {
  4681     0218  2A1C               	goto	l96
  4682     0219                     l2201:
  4683                           
  4684                           ;D:\yiming\00work\FR752.X\mcc_generated_files\LINDrivers\lin_app.c: 201:       HIBEAM_OF
      +                          F();
  4685     0219  3186  26B0  3181   	fcall	_HIBEAM_OFF
  4686     021C                     l96:
  4687     021C  0008               	return
  4688     021D                     __end_of_processLIN:
  4689                           
  4690                           	psect	text20
  4691     0641                     __ptext20:	
  4692 ;; *************** function _POS_ON *****************
  4693 ;; Defined at:
  4694 ;;		line 80 in file "D:\yiming\00work\FR752.X\mcc_generated_files\LINDrivers\lin_app.c"
  4695 ;; Parameters:    Size  Location     Type
  4696 ;;		None
  4697 ;; Auto vars:     Size  Location     Type
  4698 ;;		None
  4699 ;; Return value:  Size  Location     Type
  4700 ;;                  1    wreg      void 
  4701 ;; Registers used:
  4702 ;;		wreg, status,2, status,0, pclath, cstack
  4703 ;; Tracked objects:
  4704 ;;		On entry : 0/0
  4705 ;;		On exit  : 0/0
  4706 ;;		Unchanged: 0/0
  4707 ;; Data sizes:     COMMON   BANK0   BANK1   BANK2   BANK3   BANK4   BANK5   BANK6
  4708 ;;      Params:         0       0       0       0       0       0       0       0
  4709 ;;      Locals:         0       0       0       0       0       0       0       0
  4710 ;;      Temps:          0       0       0       0       0       0       0       0
  4711 ;;      Totals:         0       0       0       0       0       0       0       0
  4712 ;;Total ram usage:        0 bytes
  4713 ;; Hardware stack levels used: 1
  4714 ;; Hardware stack levels required when called: 5
  4715 ;; This function calls:
  4716 ;;		_EPWM1_LoadDutyValue
  4717 ;; This function is called by:
  4718 ;;		_processLIN
  4719 ;; This function uses a non-reentrant model
  4720 ;;
  4721                           
  4722     0641                     _POS_ON:	
  4723                           ;psect for function _POS_ON
  4724                           
  4725     0641                     l1977:	
  4726                           ;incstack = 0
  4727                           ; Regs used in _POS_ON: [wreg+status,2+status,0+pclath+cstack]
  4728                           
  4729     0641  3031               	movlw	49
  4730     0642  00F1               	movwf	EPWM1_LoadDutyValue@dutyValue
  4731     0643  3000               	movlw	0
  4732     0644  00F2               	movwf	EPWM1_LoadDutyValue@dutyValue+1
  4733     0645  3185  2578  3186   	fcall	_EPWM1_LoadDutyValue
  4734     0648                     l35:
  4735     0648  0008               	return
  4736     0649                     __end_of_POS_ON:
  4737                           
  4738                           	psect	text21
  4739     0651                     __ptext21:	
  4740 ;; *************** function _POS_OFF *****************
  4741 ;; Defined at:
  4742 ;;		line 81 in file "D:\yiming\00work\FR752.X\mcc_generated_files\LINDrivers\lin_app.c"
  4743 ;; Parameters:    Size  Location     Type
  4744 ;;		None
  4745 ;; Auto vars:     Size  Location     Type
  4746 ;;		None
  4747 ;; Return value:  Size  Location     Type
  4748 ;;                  1    wreg      void 
  4749 ;; Registers used:
  4750 ;;		wreg, status,2, status,0, pclath, cstack
  4751 ;; Tracked objects:
  4752 ;;		On entry : 0/0
  4753 ;;		On exit  : 0/0
  4754 ;;		Unchanged: 0/0
  4755 ;; Data sizes:     COMMON   BANK0   BANK1   BANK2   BANK3   BANK4   BANK5   BANK6
  4756 ;;      Params:         0       0       0       0       0       0       0       0
  4757 ;;      Locals:         0       0       0       0       0       0       0       0
  4758 ;;      Temps:          0       0       0       0       0       0       0       0
  4759 ;;      Totals:         0       0       0       0       0       0       0       0
  4760 ;;Total ram usage:        0 bytes
  4761 ;; Hardware stack levels used: 1
  4762 ;; Hardware stack levels required when called: 5
  4763 ;; This function calls:
  4764 ;;		_EPWM1_LoadDutyValue
  4765 ;; This function is called by:
  4766 ;;		_processLIN
  4767 ;; This function uses a non-reentrant model
  4768 ;;
  4769                           
  4770     0651                     _POS_OFF:	
  4771                           ;psect for function _POS_OFF
  4772                           
  4773     0651                     l1979:	
  4774                           ;incstack = 0
  4775                           ; Regs used in _POS_OFF: [wreg+status,2+status,0+pclath+cstack]
  4776                           
  4777     0651  3000               	movlw	0
  4778     0652  00F1               	movwf	EPWM1_LoadDutyValue@dutyValue
  4779     0653  00F2               	movwf	EPWM1_LoadDutyValue@dutyValue+1
  4780     0654  3185  2578  3186   	fcall	_EPWM1_LoadDutyValue
  4781     0657                     l38:
  4782     0657  0008               	return
  4783     0658                     __end_of_POS_OFF:
  4784                           
  4785                           	psect	text22
  4786     04DC                     __ptext22:	
  4787 ;; *************** function _LIN_getPacket *****************
  4788 ;; Defined at:
  4789 ;;		line 204 in file "D:\yiming\00work\FR752.X\mcc_generated_files\LINDrivers\lin_slave.c"
  4790 ;; Parameters:    Size  Location     Type
  4791 ;;  data            1    wreg     PTR unsigned char 
  4792 ;;		 -> processLIN@tempRxData(8), 
  4793 ;; Auto vars:     Size  Location     Type
  4794 ;;  data            1   10[COMMON] PTR unsigned char 
  4795 ;;		 -> processLIN@tempRxData(8), 
  4796 ;;  cmd             1    9[COMMON] unsigned char 
  4797 ;; Return value:  Size  Location     Type
  4798 ;;                  1    wreg      unsigned char 
  4799 ;; Registers used:
  4800 ;;		wreg, fsr1l, fsr1h, status,2, status,0, pclath, cstack
  4801 ;; Tracked objects:
  4802 ;;		On entry : 0/0
  4803 ;;		On exit  : 0/0
  4804 ;;		Unchanged: 0/0
  4805 ;; Data sizes:     COMMON   BANK0   BANK1   BANK2   BANK3   BANK4   BANK5   BANK6
  4806 ;;      Params:         0       0       0       0       0       0       0       0
  4807 ;;      Locals:         2       0       0       0       0       0       0       0
  4808 ;;      Temps:          0       0       0       0       0       0       0       0
  4809 ;;      Totals:         2       0       0       0       0       0       0       0
  4810 ;;Total ram usage:        2 bytes
  4811 ;; Hardware stack levels used: 1
  4812 ;; Hardware stack levels required when called: 5
  4813 ;; This function calls:
  4814 ;;		_memcpy
  4815 ;;		_memset
  4816 ;; This function is called by:
  4817 ;;		_processLIN
  4818 ;; This function uses a non-reentrant model
  4819 ;;
  4820                           
  4821     04DC                     _LIN_getPacket:	
  4822                           ;psect for function _LIN_getPacket
  4823                           
  4824                           
  4825                           ;incstack = 0
  4826                           ; Regs used in _LIN_getPacket: [wreg+fsr1l+fsr1h+status,2+status,0+pclath+cstack]
  4827                           ;LIN_getPacket@data stored from wreg
  4828     04DC  00FA               	movwf	LIN_getPacket@data
  4829     04DD                     l1993:
  4830                           
  4831                           ;D:\yiming\00work\FR752.X\mcc_generated_files\LINDrivers\lin_slave.c: 205:   uint8_t cmd
      +                           = LIN_packet.PID & 0x3F;
  4832     04DD  0020               	movlb	0	; select bank0
  4833     04DE  0856               	movf	_LIN_packet,w
  4834     04DF  393F               	andlw	63
  4835     04E0  00F9               	movwf	LIN_getPacket@cmd
  4836     04E1                     l1995:
  4837                           
  4838                           ;D:\yiming\00work\FR752.X\mcc_generated_files\LINDrivers\lin_slave.c: 207:   memcpy(data
      +                          , LIN_packet.data, sizeof(LIN_packet.data));
  4839     04E1  3057               	movlw	(low ((_LIN_packet| 0+1)))& (0+255)
  4840     04E2  00F1               	movwf	memcpy@s1
  4841     04E3  3008               	movlw	8
  4842     04E4  00F2               	movwf	memcpy@n
  4843     04E5  3000               	movlw	0
  4844     04E6  00F3               	movwf	memcpy@n+1
  4845     04E7  087A               	movf	LIN_getPacket@data,w
  4846     04E8  3184  2470  3184   	fcall	_memcpy
  4847     04EB                     l1997:
  4848                           
  4849                           ;D:\yiming\00work\FR752.X\mcc_generated_files\LINDrivers\lin_slave.c: 208:   memset(LIN_
      +                          packet.rawPacket, 0, sizeof(LIN_packet.rawPacket));
  4850     04EB  3000               	movlw	0
  4851     04EC  00F1               	movwf	memset@c
  4852     04ED  00F2               	movwf	memset@c+1
  4853     04EE  300D               	movlw	13
  4854     04EF  00F3               	movwf	memset@n
  4855     04F0  3000               	movlw	0
  4856     04F1  00F4               	movwf	memset@n+1
  4857     04F2  3056               	movlw	(low (_LIN_packet| 0))& (0+255)
  4858     04F3  3185  2513  3184   	fcall	_memset
  4859     04F6                     l1999:
  4860                           
  4861                           ;D:\yiming\00work\FR752.X\mcc_generated_files\LINDrivers\lin_slave.c: 210:   return cmd;
  4862     04F6  0879               	movf	LIN_getPacket@cmd,w
  4863     04F7                     l216:
  4864     04F7  0008               	return
  4865     04F8                     __end_of_LIN_getPacket:
  4866                           
  4867                           	psect	text23
  4868     0513                     __ptext23:	
  4869 ;; *************** function _memset *****************
  4870 ;; Defined at:
  4871 ;;		line 3 in file "c:\PROGRA~1\MICROC~1\xc8\v2.46\pic\sources\c99\common\memset.c"
  4872 ;; Parameters:    Size  Location     Type
  4873 ;;  dest            1    wreg     PTR void 
  4874 ;;		 -> LIN_packet(13), 
  4875 ;;  c               2    1[COMMON] int 
  4876 ;;  n               2    3[COMMON] unsigned int 
  4877 ;; Auto vars:     Size  Location     Type
  4878 ;;  dest            1    7[COMMON] PTR void 
  4879 ;;		 -> LIN_packet(13), 
  4880 ;;  p               1    6[COMMON] PTR unsigned char 
  4881 ;;		 -> LIN_packet(13), 
  4882 ;; Return value:  Size  Location     Type
  4883 ;;                  1    wreg      PTR void 
  4884 ;; Registers used:
  4885 ;;		wreg, fsr1l, fsr1h, status,2, status,0
  4886 ;; Tracked objects:
  4887 ;;		On entry : 0/0
  4888 ;;		On exit  : 0/0
  4889 ;;		Unchanged: 0/0
  4890 ;; Data sizes:     COMMON   BANK0   BANK1   BANK2   BANK3   BANK4   BANK5   BANK6
  4891 ;;      Params:         4       0       0       0       0       0       0       0
  4892 ;;      Locals:         2       0       0       0       0       0       0       0
  4893 ;;      Temps:          1       0       0       0       0       0       0       0
  4894 ;;      Totals:         7       0       0       0       0       0       0       0
  4895 ;;Total ram usage:        7 bytes
  4896 ;; Hardware stack levels used: 1
  4897 ;; Hardware stack levels required when called: 4
  4898 ;; This function calls:
  4899 ;;		Nothing
  4900 ;; This function is called by:
  4901 ;;		_LIN_handler
  4902 ;;		_LIN_getPacket
  4903 ;; This function uses a non-reentrant model
  4904 ;;
  4905                           
  4906     0513                     _memset:	
  4907                           ;psect for function _memset
  4908                           
  4909                           
  4910                           ;incstack = 0
  4911                           ; Regs used in _memset: [wreg+fsr1l+fsr1h+status,2+status,0]
  4912                           ;memset@dest stored from wreg
  4913     0513  00F7               	movwf	memset@dest
  4914     0514                     l1951:
  4915     0514  0877               	movf	memset@dest,w
  4916     0515  00F6               	movwf	memset@p
  4917     0516  2D20               	goto	l1957
  4918     0517                     l1953:
  4919     0517  0876               	movf	memset@p,w
  4920     0518  0086               	movwf	6
  4921     0519  0187               	clrf	7
  4922     051A  0871               	movf	memset@c,w
  4923     051B  0081               	movwf	1
  4924     051C                     l1955:
  4925     051C  3001               	movlw	1
  4926     051D  00F5               	movwf	??_memset
  4927     051E  0875               	movf	??_memset,w
  4928     051F  07F6               	addwf	memset@p,f
  4929     0520                     l1957:
  4930     0520  3001               	movlw	1
  4931     0521  02F3               	subwf	memset@n,f
  4932     0522  3000               	movlw	0
  4933     0523  3BF4               	subwfb	memset@n+1,f
  4934     0524  0A73               	incf	memset@n,w
  4935     0525  1D03               	skipz
  4936     0526  2D2B               	goto	u1031
  4937     0527  0A74               	incf	memset@n+1,w
  4938     0528  1D03               	btfss	3,2
  4939     0529  2D2B               	goto	u1031
  4940     052A  2D2C               	goto	u1030
  4941     052B                     u1031:
  4942     052B  2D17               	goto	l1953
  4943     052C                     u1030:
  4944     052C                     l1223:
  4945     052C  0008               	return
  4946     052D                     __end_of_memset:
  4947                           
  4948                           	psect	text24
  4949     06AD                     __ptext24:	
  4950 ;; *************** function _HIBEAM_ON *****************
  4951 ;; Defined at:
  4952 ;;		line 86 in file "D:\yiming\00work\FR752.X\mcc_generated_files\LINDrivers\lin_app.c"
  4953 ;; Parameters:    Size  Location     Type
  4954 ;;		None
  4955 ;; Auto vars:     Size  Location     Type
  4956 ;;		None
  4957 ;; Return value:  Size  Location     Type
  4958 ;;                  1    wreg      void 
  4959 ;; Registers used:
  4960 ;;		None
  4961 ;; Tracked objects:
  4962 ;;		On entry : 0/0
  4963 ;;		On exit  : 0/0
  4964 ;;		Unchanged: 0/0
  4965 ;; Data sizes:     COMMON   BANK0   BANK1   BANK2   BANK3   BANK4   BANK5   BANK6
  4966 ;;      Params:         0       0       0       0       0       0       0       0
  4967 ;;      Locals:         0       0       0       0       0       0       0       0
  4968 ;;      Temps:          0       0       0       0       0       0       0       0
  4969 ;;      Totals:         0       0       0       0       0       0       0       0
  4970 ;;Total ram usage:        0 bytes
  4971 ;; Hardware stack levels used: 1
  4972 ;; Hardware stack levels required when called: 4
  4973 ;; This function calls:
  4974 ;;		Nothing
  4975 ;; This function is called by:
  4976 ;;		_processLIN
  4977 ;; This function uses a non-reentrant model
  4978 ;;
  4979                           
  4980     06AD                     _HIBEAM_ON:	
  4981                           ;psect for function _HIBEAM_ON
  4982                           
  4983     06AD                     l47:	
  4984                           ;incstack = 0
  4985                           ; Regs used in _HIBEAM_ON: []
  4986                           
  4987     06AD  0022               	movlb	2	; select bank2
  4988     06AE  150C               	bsf	12,2	;volatile
  4989     06AF                     l49:
  4990     06AF  0008               	return
  4991     06B0                     __end_of_HIBEAM_ON:
  4992                           
  4993                           	psect	text25
  4994     06B0                     __ptext25:	
  4995 ;; *************** function _HIBEAM_OFF *****************
  4996 ;; Defined at:
  4997 ;;		line 87 in file "D:\yiming\00work\FR752.X\mcc_generated_files\LINDrivers\lin_app.c"
  4998 ;; Parameters:    Size  Location     Type
  4999 ;;		None
  5000 ;; Auto vars:     Size  Location     Type
  5001 ;;		None
  5002 ;; Return value:  Size  Location     Type
  5003 ;;                  1    wreg      void 
  5004 ;; Registers used:
  5005 ;;		None
  5006 ;; Tracked objects:
  5007 ;;		On entry : 0/0
  5008 ;;		On exit  : 0/0
  5009 ;;		Unchanged: 0/0
  5010 ;; Data sizes:     COMMON   BANK0   BANK1   BANK2   BANK3   BANK4   BANK5   BANK6
  5011 ;;      Params:         0       0       0       0       0       0       0       0
  5012 ;;      Locals:         0       0       0       0       0       0       0       0
  5013 ;;      Temps:          0       0       0       0       0       0       0       0
  5014 ;;      Totals:         0       0       0       0       0       0       0       0
  5015 ;;Total ram usage:        0 bytes
  5016 ;; Hardware stack levels used: 1
  5017 ;; Hardware stack levels required when called: 4
  5018 ;; This function calls:
  5019 ;;		Nothing
  5020 ;; This function is called by:
  5021 ;;		_processLIN
  5022 ;; This function uses a non-reentrant model
  5023 ;;
  5024                           
  5025     06B0                     _HIBEAM_OFF:	
  5026                           ;psect for function _HIBEAM_OFF
  5027                           
  5028     06B0                     l52:	
  5029                           ;incstack = 0
  5030                           ; Regs used in _HIBEAM_OFF: []
  5031                           
  5032     06B0  0022               	movlb	2	; select bank2
  5033     06B1  110C               	bcf	12,2	;volatile
  5034     06B2                     l54:
  5035     06B2  0008               	return
  5036     06B3                     __end_of_HIBEAM_OFF:
  5037                           
  5038                           	psect	text26
  5039     0649                     __ptext26:	
  5040 ;; *************** function _DRL_ON *****************
  5041 ;; Defined at:
  5042 ;;		line 82 in file "D:\yiming\00work\FR752.X\mcc_generated_files\LINDrivers\lin_app.c"
  5043 ;; Parameters:    Size  Location     Type
  5044 ;;		None
  5045 ;; Auto vars:     Size  Location     Type
  5046 ;;		None
  5047 ;; Return value:  Size  Location     Type
  5048 ;;                  1    wreg      void 
  5049 ;; Registers used:
  5050 ;;		wreg, status,2, status,0, pclath, cstack
  5051 ;; Tracked objects:
  5052 ;;		On entry : 0/0
  5053 ;;		On exit  : 0/0
  5054 ;;		Unchanged: 0/0
  5055 ;; Data sizes:     COMMON   BANK0   BANK1   BANK2   BANK3   BANK4   BANK5   BANK6
  5056 ;;      Params:         0       0       0       0       0       0       0       0
  5057 ;;      Locals:         0       0       0       0       0       0       0       0
  5058 ;;      Temps:          0       0       0       0       0       0       0       0
  5059 ;;      Totals:         0       0       0       0       0       0       0       0
  5060 ;;Total ram usage:        0 bytes
  5061 ;; Hardware stack levels used: 1
  5062 ;; Hardware stack levels required when called: 5
  5063 ;; This function calls:
  5064 ;;		_EPWM1_LoadDutyValue
  5065 ;; This function is called by:
  5066 ;;		_processLIN
  5067 ;; This function uses a non-reentrant model
  5068 ;;
  5069                           
  5070     0649                     _DRL_ON:	
  5071                           ;psect for function _DRL_ON
  5072                           
  5073     0649                     l1981:	
  5074                           ;incstack = 0
  5075                           ; Regs used in _DRL_ON: [wreg+status,2+status,0+pclath+cstack]
  5076                           
  5077     0649  30F3               	movlw	243
  5078     064A  00F1               	movwf	EPWM1_LoadDutyValue@dutyValue
  5079     064B  3001               	movlw	1
  5080     064C  00F2               	movwf	EPWM1_LoadDutyValue@dutyValue+1
  5081     064D  3185  2578  3186   	fcall	_EPWM1_LoadDutyValue
  5082     0650                     l41:
  5083     0650  0008               	return
  5084     0651                     __end_of_DRL_ON:
  5085                           
  5086                           	psect	text27
  5087     0658                     __ptext27:	
  5088 ;; *************** function _DRL_OFF *****************
  5089 ;; Defined at:
  5090 ;;		line 83 in file "D:\yiming\00work\FR752.X\mcc_generated_files\LINDrivers\lin_app.c"
  5091 ;; Parameters:    Size  Location     Type
  5092 ;;		None
  5093 ;; Auto vars:     Size  Location     Type
  5094 ;;		None
  5095 ;; Return value:  Size  Location     Type
  5096 ;;                  1    wreg      void 
  5097 ;; Registers used:
  5098 ;;		wreg, status,2, status,0, pclath, cstack
  5099 ;; Tracked objects:
  5100 ;;		On entry : 0/0
  5101 ;;		On exit  : 0/0
  5102 ;;		Unchanged: 0/0
  5103 ;; Data sizes:     COMMON   BANK0   BANK1   BANK2   BANK3   BANK4   BANK5   BANK6
  5104 ;;      Params:         0       0       0       0       0       0       0       0
  5105 ;;      Locals:         0       0       0       0       0       0       0       0
  5106 ;;      Temps:          0       0       0       0       0       0       0       0
  5107 ;;      Totals:         0       0       0       0       0       0       0       0
  5108 ;;Total ram usage:        0 bytes
  5109 ;; Hardware stack levels used: 1
  5110 ;; Hardware stack levels required when called: 5
  5111 ;; This function calls:
  5112 ;;		_EPWM1_LoadDutyValue
  5113 ;; This function is called by:
  5114 ;;		_processLIN
  5115 ;; This function uses a non-reentrant model
  5116 ;;
  5117                           
  5118     0658                     _DRL_OFF:	
  5119                           ;psect for function _DRL_OFF
  5120                           
  5121     0658                     l1983:	
  5122                           ;incstack = 0
  5123                           ; Regs used in _DRL_OFF: [wreg+status,2+status,0+pclath+cstack]
  5124                           
  5125     0658  3000               	movlw	0
  5126     0659  00F1               	movwf	EPWM1_LoadDutyValue@dutyValue
  5127     065A  00F2               	movwf	EPWM1_LoadDutyValue@dutyValue+1
  5128     065B  3185  2578  3186   	fcall	_EPWM1_LoadDutyValue
  5129     065E                     l44:
  5130     065E  0008               	return
  5131     065F                     __end_of_DRL_OFF:
  5132                           
  5133                           	psect	text28
  5134     0578                     __ptext28:	
  5135 ;; *************** function _EPWM1_LoadDutyValue *****************
  5136 ;; Defined at:
  5137 ;;		line 90 in file "D:\yiming\00work\FR752.X\mcc_generated_files\epwm1.c"
  5138 ;; Parameters:    Size  Location     Type
  5139 ;;  dutyValue       2    1[COMMON] unsigned short 
  5140 ;; Auto vars:     Size  Location     Type
  5141 ;;		None
  5142 ;; Return value:  Size  Location     Type
  5143 ;;                  1    wreg      void 
  5144 ;; Registers used:
  5145 ;;		wreg, status,2, status,0
  5146 ;; Tracked objects:
  5147 ;;		On entry : 0/0
  5148 ;;		On exit  : 0/0
  5149 ;;		Unchanged: 0/0
  5150 ;; Data sizes:     COMMON   BANK0   BANK1   BANK2   BANK3   BANK4   BANK5   BANK6
  5151 ;;      Params:         2       0       0       0       0       0       0       0
  5152 ;;      Locals:         0       0       0       0       0       0       0       0
  5153 ;;      Temps:          2       0       0       0       0       0       0       0
  5154 ;;      Totals:         4       0       0       0       0       0       0       0
  5155 ;;Total ram usage:        4 bytes
  5156 ;; Hardware stack levels used: 1
  5157 ;; Hardware stack levels required when called: 4
  5158 ;; This function calls:
  5159 ;;		Nothing
  5160 ;; This function is called by:
  5161 ;;		_POS_ON
  5162 ;;		_POS_OFF
  5163 ;;		_DRL_ON
  5164 ;;		_DRL_OFF
  5165 ;; This function uses a non-reentrant model
  5166 ;;
  5167                           
  5168     0578                     _EPWM1_LoadDutyValue:	
  5169                           ;psect for function _EPWM1_LoadDutyValue
  5170                           
  5171     0578                     l1913:	
  5172                           ;incstack = 0
  5173                           ; Regs used in _EPWM1_LoadDutyValue: [wreg+status,2+status,0]
  5174                           
  5175                           
  5176                           ;D:\yiming\00work\FR752.X\mcc_generated_files\epwm1.c: 90: void EPWM1_LoadDutyValue(uint
      +                          16_t dutyValue);D:\yiming\00work\FR752.X\mcc_generated_files\epwm1.c: 91: {;D:\yiming\00
      +                          work\FR752.X\mcc_generated_files\epwm1.c: 93:     CCPR1L = ((dutyValue & 0x03FC)>>2);
  5177     0578  0872               	movf	EPWM1_LoadDutyValue@dutyValue+1,w
  5178     0579  00F4               	movwf	??_EPWM1_LoadDutyValue+1
  5179     057A  0871               	movf	EPWM1_LoadDutyValue@dutyValue,w
  5180     057B  00F3               	movwf	??_EPWM1_LoadDutyValue
  5181     057C  36F4               	lsrf	??_EPWM1_LoadDutyValue+1,f
  5182     057D  0CF3               	rrf	??_EPWM1_LoadDutyValue,f
  5183     057E  36F4               	lsrf	??_EPWM1_LoadDutyValue+1,f
  5184     057F  0CF3               	rrf	??_EPWM1_LoadDutyValue,f
  5185     0580  0873               	movf	??_EPWM1_LoadDutyValue,w
  5186     0581  0025               	movlb	5	; select bank5
  5187     0582  0091               	movwf	17	;volatile
  5188                           
  5189                           ;D:\yiming\00work\FR752.X\mcc_generated_files\epwm1.c: 96:     CCP1CON = (uint8_t)((CCP1
      +                          CON & 0xCF) | ((dutyValue & 0x0003)<<4));
  5190     0583  0871               	movf	EPWM1_LoadDutyValue@dutyValue,w
  5191     0584  3903               	andlw	3
  5192     0585  00F3               	movwf	??_EPWM1_LoadDutyValue
  5193     0586  3004               	movlw	4
  5194     0587                     u995:
  5195     0587  35F3               	lslf	??_EPWM1_LoadDutyValue,f
  5196     0588  0B89               	decfsz	9,f
  5197     0589  2D87               	goto	u995
  5198     058A  0813               	movf	19,w	;volatile
  5199     058B  39CF               	andlw	207
  5200     058C  0473               	iorwf	??_EPWM1_LoadDutyValue,w
  5201     058D  0093               	movwf	19	;volatile
  5202     058E                     l288:
  5203     058E  0008               	return
  5204     058F                     __end_of_EPWM1_LoadDutyValue:
  5205                           
  5206                           	psect	text29
  5207     0689                     __ptext29:	
  5208 ;; *************** function _LIN_stopTimer *****************
  5209 ;; Defined at:
  5210 ;;		line 305 in file "D:\yiming\00work\FR752.X\mcc_generated_files\LINDrivers\lin_slave.c"
  5211 ;; Parameters:    Size  Location     Type
  5212 ;;		None
  5213 ;; Auto vars:     Size  Location     Type
  5214 ;;		None
  5215 ;; Return value:  Size  Location     Type
  5216 ;;                  1    wreg      void 
  5217 ;; Registers used:
  5218 ;;		status,2
  5219 ;; Tracked objects:
  5220 ;;		On entry : 0/0
  5221 ;;		On exit  : 0/0
  5222 ;;		Unchanged: 0/0
  5223 ;; Data sizes:     COMMON   BANK0   BANK1   BANK2   BANK3   BANK4   BANK5   BANK6
  5224 ;;      Params:         0       0       0       0       0       0       0       0
  5225 ;;      Locals:         0       0       0       0       0       0       0       0
  5226 ;;      Temps:          0       0       0       0       0       0       0       0
  5227 ;;      Totals:         0       0       0       0       0       0       0       0
  5228 ;;Total ram usage:        0 bytes
  5229 ;; Hardware stack levels used: 1
  5230 ;; Hardware stack levels required when called: 4
  5231 ;; This function calls:
  5232 ;;		Nothing
  5233 ;; This function is called by:
  5234 ;;		_LIN_init
  5235 ;;		_LIN_handler
  5236 ;; This function uses a non-reentrant model
  5237 ;;
  5238                           
  5239     0689                     _LIN_stopTimer:	
  5240                           ;psect for function _LIN_stopTimer
  5241                           
  5242     0689                     l1915:	
  5243                           ;incstack = 0
  5244                           ; Regs used in _LIN_stopTimer: [status,2]
  5245                           
  5246                           
  5247                           ;D:\yiming\00work\FR752.X\mcc_generated_files\LINDrivers\lin_slave.c: 306:   __nop();
  5248     0689  0000               	nop
  5249     068A                     l1917:
  5250                           
  5251                           ;D:\yiming\00work\FR752.X\mcc_generated_files\LINDrivers\lin_slave.c: 308:   CountCallBa
      +                          ck = 0;
  5252     068A  0020               	movlb	0	; select bank0
  5253     068B  01D0               	clrf	_CountCallBack	;volatile
  5254                           
  5255                           ;D:\yiming\00work\FR752.X\mcc_generated_files\LINDrivers\lin_slave.c: 309:   LIN_timerRu
      +                          nning = 0;
  5256     068C  01D1               	clrf	_LIN_timerRunning
  5257     068D                     l258:
  5258     068D  0008               	return
  5259     068E                     __end_of_LIN_stopTimer:
  5260                           
  5261                           	psect	text30
  5262     0604                     __ptext30:	
  5263 ;; *************** function _LIN_startTimer *****************
  5264 ;; Defined at:
  5265 ;;		line 285 in file "D:\yiming\00work\FR752.X\mcc_generated_files\LINDrivers\lin_slave.c"
  5266 ;; Parameters:    Size  Location     Type
  5267 ;;  timeout         1    wreg     unsigned char 
  5268 ;; Auto vars:     Size  Location     Type
  5269 ;;  timeout         1    2[COMMON] unsigned char 
  5270 ;; Return value:  Size  Location     Type
  5271 ;;                  1    wreg      void 
  5272 ;; Registers used:
  5273 ;;		wreg, status,2, status,0, pclath, cstack
  5274 ;; Tracked objects:
  5275 ;;		On entry : 0/0
  5276 ;;		On exit  : 0/0
  5277 ;;		Unchanged: 0/0
  5278 ;; Data sizes:     COMMON   BANK0   BANK1   BANK2   BANK3   BANK4   BANK5   BANK6
  5279 ;;      Params:         0       0       0       0       0       0       0       0
  5280 ;;      Locals:         1       0       0       0       0       0       0       0
  5281 ;;      Temps:          0       0       0       0       0       0       0       0
  5282 ;;      Totals:         1       0       0       0       0       0       0       0
  5283 ;;Total ram usage:        1 bytes
  5284 ;; Hardware stack levels used: 1
  5285 ;; Hardware stack levels required when called: 5
  5286 ;; This function calls:
  5287 ;;		_TMR0_WriteTimer
  5288 ;; This function is called by:
  5289 ;;		_LIN_handler
  5290 ;; This function uses a non-reentrant model
  5291 ;;
  5292                           
  5293     0604                     _LIN_startTimer:	
  5294                           ;psect for function _LIN_startTimer
  5295                           
  5296                           
  5297                           ;incstack = 0
  5298                           ; Regs used in _LIN_startTimer: [wreg+status,2+status,0+pclath+cstack]
  5299                           ;LIN_startTimer@timeout stored from wreg
  5300     0604  00F2               	movwf	LIN_startTimer@timeout
  5301     0605                     l2231:
  5302                           
  5303                           ;D:\yiming\00work\FR752.X\mcc_generated_files\LINDrivers\lin_slave.c: 286:   LIN_timeout
      +                           = timeout;
  5304     0605  0872               	movf	LIN_startTimer@timeout,w
  5305     0606  0020               	movlb	0	; select bank0
  5306     0607  00EE               	movwf	_LIN_timeout
  5307     0608                     l2233:
  5308                           
  5309                           ;D:\yiming\00work\FR752.X\mcc_generated_files\LINDrivers\lin_slave.c: 287:   TMR0_WriteT
      +                          imer(0);
  5310     0608  3000               	movlw	0
  5311     0609  3186  268E  3186   	fcall	_TMR0_WriteTimer
  5312     060C                     l2235:
  5313                           
  5314                           ;D:\yiming\00work\FR752.X\mcc_generated_files\LINDrivers\lin_slave.c: 288:   __nop();
  5315     060C  0000               	nop
  5316     060D                     l2237:
  5317                           
  5318                           ;D:\yiming\00work\FR752.X\mcc_generated_files\LINDrivers\lin_slave.c: 289:   LIN_timerRu
      +                          nning = 1;
  5319     060D  0020               	movlb	0	; select bank0
  5320     060E  01D1               	clrf	_LIN_timerRunning
  5321     060F  0AD1               	incf	_LIN_timerRunning,f
  5322     0610                     l248:
  5323     0610  0008               	return
  5324     0611                     __end_of_LIN_startTimer:
  5325                           
  5326                           	psect	text31
  5327     068E                     __ptext31:	
  5328 ;; *************** function _TMR0_WriteTimer *****************
  5329 ;; Defined at:
  5330 ;;		line 96 in file "D:\yiming\00work\FR752.X\mcc_generated_files\tmr0.c"
  5331 ;; Parameters:    Size  Location     Type
  5332 ;;  timerVal        1    wreg     unsigned char 
  5333 ;; Auto vars:     Size  Location     Type
  5334 ;;  timerVal        1    1[COMMON] unsigned char 
  5335 ;; Return value:  Size  Location     Type
  5336 ;;                  1    wreg      void 
  5337 ;; Registers used:
  5338 ;;		wreg
  5339 ;; Tracked objects:
  5340 ;;		On entry : 0/0
  5341 ;;		On exit  : 0/0
  5342 ;;		Unchanged: 0/0
  5343 ;; Data sizes:     COMMON   BANK0   BANK1   BANK2   BANK3   BANK4   BANK5   BANK6
  5344 ;;      Params:         0       0       0       0       0       0       0       0
  5345 ;;      Locals:         1       0       0       0       0       0       0       0
  5346 ;;      Temps:          0       0       0       0       0       0       0       0
  5347 ;;      Totals:         1       0       0       0       0       0       0       0
  5348 ;;Total ram usage:        1 bytes
  5349 ;; Hardware stack levels used: 1
  5350 ;; Hardware stack levels required when called: 4
  5351 ;; This function calls:
  5352 ;;		Nothing
  5353 ;; This function is called by:
  5354 ;;		_LIN_startTimer
  5355 ;; This function uses a non-reentrant model
  5356 ;;
  5357                           
  5358     068E                     _TMR0_WriteTimer:	
  5359                           ;psect for function _TMR0_WriteTimer
  5360                           
  5361                           
  5362                           ;incstack = 0
  5363                           ; Regs used in _TMR0_WriteTimer: [wreg]
  5364                           ;TMR0_WriteTimer@timerVal stored from wreg
  5365     068E  00F1               	movwf	TMR0_WriteTimer@timerVal
  5366     068F                     l2091:
  5367                           
  5368                           ;D:\yiming\00work\FR752.X\mcc_generated_files\tmr0.c: 96: void TMR0_WriteTimer(uint8_t t
      +                          imerVal);D:\yiming\00work\FR752.X\mcc_generated_files\tmr0.c: 97: {;D:\yiming\00work\FR7
      +                          52.X\mcc_generated_files\tmr0.c: 99:     TMR0 = timerVal;
  5369     068F  0871               	movf	TMR0_WriteTimer@timerVal,w
  5370     0690  0020               	movlb	0	; select bank0
  5371     0691  0095               	movwf	21	;volatile
  5372     0692                     l560:
  5373     0692  0008               	return
  5374     0693                     __end_of_TMR0_WriteTimer:
  5375                           
  5376                           	psect	text32
  5377     02A3                     __ptext32:	
  5378 ;; *************** function _LIN_queuePacket *****************
  5379 ;; Defined at:
  5380 ;;		line 68 in file "D:\yiming\00work\FR752.X\mcc_generated_files\LINDrivers\lin_slave.c"
  5381 ;; Parameters:    Size  Location     Type
  5382 ;;  cmd             1    wreg     unsigned char 
  5383 ;; Auto vars:     Size  Location     Type
  5384 ;;  cmd             1    7[BANK0 ] unsigned char 
  5385 ;;  i               1    8[BANK0 ] unsigned char 
  5386 ;;  tempSchedule    2    9[BANK0 ] PTR const struct .
  5387 ;;		 -> NULL(0), scheduleTable(4), 
  5388 ;; Return value:  Size  Location     Type
  5389 ;;                  1    wreg      void 
  5390 ;; Registers used:
  5391 ;;		wreg, fsr0l, fsr0h, fsr1l, fsr1h, status,2, status,0, pclath, cstack
  5392 ;; Tracked objects:
  5393 ;;		On entry : 0/0
  5394 ;;		On exit  : 0/0
  5395 ;;		Unchanged: 0/0
  5396 ;; Data sizes:     COMMON   BANK0   BANK1   BANK2   BANK3   BANK4   BANK5   BANK6
  5397 ;;      Params:         0       0       0       0       0       0       0       0
  5398 ;;      Locals:         0       4       0       0       0       0       0       0
  5399 ;;      Temps:          0       4       0       0       0       0       0       0
  5400 ;;      Totals:         0       8       0       0       0       0       0       0
  5401 ;;Total ram usage:        8 bytes
  5402 ;; Hardware stack levels used: 1
  5403 ;; Hardware stack levels required when called: 6
  5404 ;; This function calls:
  5405 ;;		_LIN_getChecksum
  5406 ;;		_LIN_sendPacket
  5407 ;;		_memcpy
  5408 ;; This function is called by:
  5409 ;;		_LIN_handler
  5410 ;; This function uses a non-reentrant model
  5411 ;;
  5412                           
  5413     02A3                     _LIN_queuePacket:	
  5414                           ;psect for function _LIN_queuePacket
  5415                           
  5416                           
  5417                           ;incstack = 0
  5418                           ; Regs used in _LIN_queuePacket: [wreg-fsr1h+status,2+status,0+pclath+cstack]
  5419                           ;LIN_queuePacket@cmd stored from wreg
  5420     02A3  0020               	movlb	0	; select bank0
  5421     02A4  00EA               	movwf	LIN_queuePacket@cmd
  5422     02A5                     l2557:
  5423                           
  5424                           ;D:\yiming\00work\FR752.X\mcc_generated_files\LINDrivers\lin_slave.c: 69:   const lin_rx
      +                          _cmd_t *tempSchedule =
  5425     02A5  0845               	movf	_LIN_rxCommand+1,w
  5426     02A6  00ED               	movwf	LIN_queuePacket@tempSchedule+1
  5427     02A7  0844               	movf	_LIN_rxCommand,w
  5428     02A8  00EC               	movwf	LIN_queuePacket@tempSchedule
  5429     02A9                     l2559:
  5430                           
  5431                           ;D:\yiming\00work\FR752.X\mcc_generated_files\LINDrivers\lin_slave.c: 72:   cmd &= 0x3F;
  5432     02A9  303F               	movlw	63
  5433     02AA  00E6               	movwf	??_LIN_queuePacket
  5434     02AB  0866               	movf	??_LIN_queuePacket,w
  5435     02AC  05EA               	andwf	LIN_queuePacket@cmd,f
  5436     02AD                     l2561:
  5437                           
  5438                           ;D:\yiming\00work\FR752.X\mcc_generated_files\LINDrivers\lin_slave.c: 73:   for (uint8_t
      +                           i = 0; i < LIN_rxCommandLength; i++) {
  5439     02AD  01EB               	clrf	LIN_queuePacket@i
  5440     02AE  2AC2               	goto	l2571
  5441     02AF                     l2563:
  5442                           
  5443                           ;D:\yiming\00work\FR752.X\mcc_generated_files\LINDrivers\lin_slave.c: 74:     if (cmd ==
      +                           tempSchedule->cmd) {
  5444     02AF  086C               	movf	LIN_queuePacket@tempSchedule,w
  5445     02B0  0084               	movwf	4
  5446     02B1  086D               	movf	LIN_queuePacket@tempSchedule+1,w
  5447     02B2  0085               	movwf	5
  5448     02B3  0800               	movf	0,w	;code access
  5449     02B4  066A               	xorwf	LIN_queuePacket@cmd,w
  5450     02B5  1D03               	skipz
  5451     02B6  2AB8               	goto	u1961
  5452     02B7  2AB9               	goto	u1960
  5453     02B8                     u1961:
  5454     02B8  2ABA               	goto	l2567
  5455     02B9                     u1960:
  5456     02B9  2AC8               	goto	l2573
  5457     02BA                     l2567:
  5458                           
  5459                           ;D:\yiming\00work\FR752.X\mcc_generated_files\LINDrivers\lin_slave.c: 77:     tempSchedu
      +                          le++;
  5460     02BA  3004               	movlw	4
  5461     02BB  07EC               	addwf	LIN_queuePacket@tempSchedule,f
  5462     02BC  3000               	movlw	0
  5463     02BD  3DED               	addwfc	LIN_queuePacket@tempSchedule+1,f
  5464     02BE                     l2569:
  5465                           
  5466                           ;D:\yiming\00work\FR752.X\mcc_generated_files\LINDrivers\lin_slave.c: 78:   }
  5467     02BE  3001               	movlw	1
  5468     02BF  00E6               	movwf	??_LIN_queuePacket
  5469     02C0  0866               	movf	??_LIN_queuePacket,w
  5470     02C1  07EB               	addwf	LIN_queuePacket@i,f
  5471     02C2                     l2571:
  5472     02C2  0852               	movf	_LIN_rxCommandLength,w
  5473     02C3  026B               	subwf	LIN_queuePacket@i,w
  5474     02C4  1C03               	skipc
  5475     02C5  2AC7               	goto	u1971
  5476     02C6  2AC8               	goto	u1970
  5477     02C7                     u1971:
  5478     02C7  2AAF               	goto	l2563
  5479     02C8                     u1970:
  5480     02C8                     l2573:
  5481                           
  5482                           ;D:\yiming\00work\FR752.X\mcc_generated_files\LINDrivers\lin_slave.c: 80:   LIN_packet.t
      +                          ype = tempSchedule->type;
  5483     02C8  086D               	movf	LIN_queuePacket@tempSchedule+1,w
  5484     02C9  00E7               	movwf	??_LIN_queuePacket+1
  5485     02CA  086C               	movf	LIN_queuePacket@tempSchedule,w
  5486     02CB  00E6               	movwf	??_LIN_queuePacket
  5487     02CC  3001               	movlw	1
  5488     02CD  0766               	addwf	??_LIN_queuePacket,w
  5489     02CE  0084               	movwf	4
  5490     02CF  0867               	movf	??_LIN_queuePacket+1,w
  5491     02D0  1803               	skipnc
  5492     02D1  0A67               	incf	??_LIN_queuePacket+1,w
  5493     02D2  0085               	movwf	5
  5494     02D3  0800               	movf	0,w	;code access
  5495     02D4  00E0               	movwf	_LIN_packet+10
  5496                           
  5497                           ;D:\yiming\00work\FR752.X\mcc_generated_files\LINDrivers\lin_slave.c: 81:   LIN_packet.l
      +                          ength = tempSchedule->length;
  5498     02D5  086D               	movf	LIN_queuePacket@tempSchedule+1,w
  5499     02D6  00E7               	movwf	??_LIN_queuePacket+1
  5500     02D7  086C               	movf	LIN_queuePacket@tempSchedule,w
  5501     02D8  00E6               	movwf	??_LIN_queuePacket
  5502     02D9  3002               	movlw	2
  5503     02DA  0766               	addwf	??_LIN_queuePacket,w
  5504     02DB  0084               	movwf	4
  5505     02DC  0867               	movf	??_LIN_queuePacket+1,w
  5506     02DD  1803               	skipnc
  5507     02DE  0A67               	incf	??_LIN_queuePacket+1,w
  5508     02DF  0085               	movwf	5
  5509     02E0  0800               	movf	0,w	;code access
  5510     02E1  00E1               	movwf	_LIN_packet+11
  5511     02E2                     l2575:
  5512                           
  5513                           ;D:\yiming\00work\FR752.X\mcc_generated_files\LINDrivers\lin_slave.c: 85:   memcpy(LIN_p
      +                          acket.data, tempSchedule->data, LIN_packet.length);
  5514     02E2  086D               	movf	LIN_queuePacket@tempSchedule+1,w
  5515     02E3  00E7               	movwf	??_LIN_queuePacket+1
  5516     02E4  086C               	movf	LIN_queuePacket@tempSchedule,w
  5517     02E5  00E6               	movwf	??_LIN_queuePacket
  5518     02E6  3003               	movlw	3
  5519     02E7  0766               	addwf	??_LIN_queuePacket,w
  5520     02E8  0084               	movwf	4
  5521     02E9  0867               	movf	??_LIN_queuePacket+1,w
  5522     02EA  1803               	skipnc
  5523     02EB  0A67               	incf	??_LIN_queuePacket+1,w
  5524     02EC  0085               	movwf	5
  5525     02ED  0800               	movf	0,w	;code access
  5526     02EE  00F1               	movwf	memcpy@s1
  5527     02EF  0861               	movf	_LIN_packet+11,w
  5528     02F0  00E8               	movwf	??_LIN_queuePacket+2
  5529     02F1  01E9               	clrf	??_LIN_queuePacket+3
  5530     02F2  0868               	movf	??_LIN_queuePacket+2,w
  5531     02F3  00F2               	movwf	memcpy@n
  5532     02F4  0869               	movf	??_LIN_queuePacket+3,w
  5533     02F5  00F3               	movwf	memcpy@n+1
  5534     02F6  3057               	movlw	(low ((_LIN_packet| 0+1)))& (0+255)
  5535     02F7  3184  2470  3182   	fcall	_memcpy
  5536     02FA                     l2577:
  5537                           
  5538                           ;D:\yiming\00work\FR752.X\mcc_generated_files\LINDrivers\lin_slave.c: 88:   LIN_packet.c
      +                          hecksum =
  5539     02FA  0020               	movlb	0	; select bank0
  5540     02FB  0856               	movf	_LIN_packet,w
  5541     02FC  00F1               	movwf	LIN_getChecksum@pid
  5542     02FD  3057               	movlw	(low ((_LIN_packet| 0+1)))& (0+255)
  5543     02FE  00F2               	movwf	LIN_getChecksum@data
  5544     02FF  0861               	movf	_LIN_packet+11,w
  5545     0300  3183  23EF  3182   	fcall	_LIN_getChecksum
  5546     0303  0020               	movlb	0	; select bank0
  5547     0304  00DF               	movwf	_LIN_packet+9
  5548     0305                     l2579:
  5549                           
  5550                           ;D:\yiming\00work\FR752.X\mcc_generated_files\LINDrivers\lin_slave.c: 90:   LIN_sendPack
      +                          et(LIN_packet.length, LIN_packet.PID, LIN_packet.data);
  5551     0305  0856               	movf	_LIN_packet,w
  5552     0306  00F9               	movwf	LIN_sendPacket@pid
  5553     0307  3057               	movlw	(low ((_LIN_packet| 0+1)))& (0+255)
  5554     0308  00FA               	movwf	LIN_sendPacket@data
  5555     0309  0861               	movf	_LIN_packet+11,w
  5556     030A  3184  2495  3182   	fcall	_LIN_sendPacket
  5557     030D                     l168:
  5558     030D  0008               	return
  5559     030E                     __end_of_LIN_queuePacket:
  5560                           
  5561                           	psect	text33
  5562     0470                     __ptext33:	
  5563 ;; *************** function _memcpy *****************
  5564 ;; Defined at:
  5565 ;;		line 4 in file "c:\PROGRA~1\MICROC~1\xc8\v2.46\pic\sources\c99\common\memcpy.c"
  5566 ;; Parameters:    Size  Location     Type
  5567 ;;  d1              1    wreg     PTR void 
  5568 ;;		 -> LIN_packet(13), processLIN@tempRxData(8), 
  5569 ;;  s1              1    1[COMMON] PTR const void 
  5570 ;;		 -> LIN_packet$data(8), LIN_packet(13), SIGNAL_Data(8), 
  5571 ;;  n               2    2[COMMON] unsigned int 
  5572 ;; Auto vars:     Size  Location     Type
  5573 ;;  d1              1    8[COMMON] PTR void 
  5574 ;;		 -> LIN_packet(13), processLIN@tempRxData(8), 
  5575 ;;  s               1    7[COMMON] PTR const unsigned char 
  5576 ;;		 -> LIN_packet$data(8), LIN_packet(13), SIGNAL_Data(8), 
  5577 ;;  d               1    6[COMMON] PTR unsigned char 
  5578 ;;		 -> LIN_packet(13), processLIN@tempRxData(8), 
  5579 ;;  tmp             1    5[COMMON] unsigned char 
  5580 ;; Return value:  Size  Location     Type
  5581 ;;                  1    wreg      PTR void 
  5582 ;; Registers used:
  5583 ;;		wreg, fsr1l, fsr1h, status,2, status,0
  5584 ;; Tracked objects:
  5585 ;;		On entry : 0/0
  5586 ;;		On exit  : 0/0
  5587 ;;		Unchanged: 0/0
  5588 ;; Data sizes:     COMMON   BANK0   BANK1   BANK2   BANK3   BANK4   BANK5   BANK6
  5589 ;;      Params:         3       0       0       0       0       0       0       0
  5590 ;;      Locals:         4       0       0       0       0       0       0       0
  5591 ;;      Temps:          1       0       0       0       0       0       0       0
  5592 ;;      Totals:         8       0       0       0       0       0       0       0
  5593 ;;Total ram usage:        8 bytes
  5594 ;; Hardware stack levels used: 1
  5595 ;; Hardware stack levels required when called: 4
  5596 ;; This function calls:
  5597 ;;		Nothing
  5598 ;; This function is called by:
  5599 ;;		_LIN_queuePacket
  5600 ;;		_LIN_getPacket
  5601 ;; This function uses a non-reentrant model
  5602 ;;
  5603                           
  5604     0470                     _memcpy:	
  5605                           ;psect for function _memcpy
  5606                           
  5607                           
  5608                           ;incstack = 0
  5609                           ; Regs used in _memcpy: [wreg+fsr1l+fsr1h+status,2+status,0]
  5610                           ;memcpy@d1 stored from wreg
  5611     0470  00F8               	movwf	memcpy@d1
  5612     0471                     l1923:
  5613     0471  0871               	movf	memcpy@s1,w
  5614     0472  00F7               	movwf	memcpy@s
  5615     0473  0878               	movf	memcpy@d1,w
  5616     0474  00F6               	movwf	memcpy@d
  5617     0475  2C88               	goto	l1214
  5618     0476                     l1925:
  5619     0476  0877               	movf	memcpy@s,w
  5620     0477  0086               	movwf	6
  5621     0478  0187               	clrf	7
  5622     0479  0801               	movf	1,w
  5623     047A  00F5               	movwf	memcpy@tmp
  5624     047B                     l1927:
  5625     047B  3001               	movlw	1
  5626     047C  00F4               	movwf	??_memcpy
  5627     047D  0874               	movf	??_memcpy,w
  5628     047E  07F7               	addwf	memcpy@s,f
  5629     047F                     l1929:
  5630     047F  0876               	movf	memcpy@d,w
  5631     0480  0086               	movwf	6
  5632     0481  0187               	clrf	7
  5633     0482  0875               	movf	memcpy@tmp,w
  5634     0483  0081               	movwf	1
  5635     0484  3001               	movlw	1
  5636     0485  00F4               	movwf	??_memcpy
  5637     0486  0874               	movf	??_memcpy,w
  5638     0487  07F6               	addwf	memcpy@d,f
  5639     0488                     l1214:
  5640     0488  3001               	movlw	1
  5641     0489  02F2               	subwf	memcpy@n,f
  5642     048A  3000               	movlw	0
  5643     048B  3BF3               	subwfb	memcpy@n+1,f
  5644     048C  0A72               	incf	memcpy@n,w
  5645     048D  1D03               	skipz
  5646     048E  2C93               	goto	u1001
  5647     048F  0A73               	incf	memcpy@n+1,w
  5648     0490  1D03               	btfss	3,2
  5649     0491  2C93               	goto	u1001
  5650     0492  2C94               	goto	u1000
  5651     0493                     u1001:
  5652     0493  2C76               	goto	l1925
  5653     0494                     u1000:
  5654     0494                     l1217:
  5655     0494  0008               	return
  5656     0495                     __end_of_memcpy:
  5657                           
  5658                           	psect	text34
  5659     0495                     __ptext34:	
  5660 ;; *************** function _LIN_sendPacket *****************
  5661 ;; Defined at:
  5662 ;;		line 194 in file "D:\yiming\00work\FR752.X\mcc_generated_files\LINDrivers\lin_slave.c"
  5663 ;; Parameters:    Size  Location     Type
  5664 ;;  length          1    wreg     unsigned char 
  5665 ;;  pid             1    9[COMMON] unsigned char 
  5666 ;;  data            1   10[COMMON] PTR unsigned char 
  5667 ;;		 -> LIN_packet(13), 
  5668 ;; Auto vars:     Size  Location     Type
  5669 ;;  length          1    1[BANK0 ] unsigned char 
  5670 ;;  i               1    2[BANK0 ] unsigned char 
  5671 ;; Return value:  Size  Location     Type
  5672 ;;                  1    wreg      void 
  5673 ;; Registers used:
  5674 ;;		wreg, fsr1l, fsr1h, status,2, status,0, pclath, cstack
  5675 ;; Tracked objects:
  5676 ;;		On entry : 0/0
  5677 ;;		On exit  : 0/0
  5678 ;;		Unchanged: 0/0
  5679 ;; Data sizes:     COMMON   BANK0   BANK1   BANK2   BANK3   BANK4   BANK5   BANK6
  5680 ;;      Params:         2       0       0       0       0       0       0       0
  5681 ;;      Locals:         0       2       0       0       0       0       0       0
  5682 ;;      Temps:          0       1       0       0       0       0       0       0
  5683 ;;      Totals:         2       3       0       0       0       0       0       0
  5684 ;;Total ram usage:        5 bytes
  5685 ;; Hardware stack levels used: 1
  5686 ;; Hardware stack levels required when called: 5
  5687 ;; This function calls:
  5688 ;;		_EUSART_Write
  5689 ;;		_LIN_getChecksum
  5690 ;; This function is called by:
  5691 ;;		_LIN_queuePacket
  5692 ;; This function uses a non-reentrant model
  5693 ;;
  5694                           
  5695     0495                     _LIN_sendPacket:	
  5696                           ;psect for function _LIN_sendPacket
  5697                           
  5698                           
  5699                           ;incstack = 0
  5700                           ; Regs used in _LIN_sendPacket: [wreg+fsr1l+fsr1h+status,2+status,0+pclath+cstack]
  5701                           ;LIN_sendPacket@length stored from wreg
  5702     0495  0020               	movlb	0	; select bank0
  5703     0496  00E4               	movwf	LIN_sendPacket@length
  5704     0497                     l2547:
  5705                           
  5706                           ;D:\yiming\00work\FR752.X\mcc_generated_files\LINDrivers\lin_slave.c: 197:   for (uint8_
      +                          t i = 0; i < length; i++) {
  5707     0497  01E5               	clrf	LIN_sendPacket@i
  5708     0498  2CA8               	goto	l2553
  5709     0499                     l2549:
  5710                           
  5711                           ;D:\yiming\00work\FR752.X\mcc_generated_files\LINDrivers\lin_slave.c: 198:     EUSART_Wr
      +                          ite(*(data + i));
  5712     0499  0865               	movf	LIN_sendPacket@i,w
  5713     049A  077A               	addwf	LIN_sendPacket@data,w
  5714     049B  00E3               	movwf	??_LIN_sendPacket
  5715     049C  0863               	movf	??_LIN_sendPacket,w
  5716     049D  0086               	movwf	6
  5717     049E  0187               	clrf	7
  5718     049F  0801               	movf	1,w
  5719     04A0  3184  2422  3184   	fcall	_EUSART_Write
  5720     04A3                     l2551:
  5721                           
  5722                           ;D:\yiming\00work\FR752.X\mcc_generated_files\LINDrivers\lin_slave.c: 199:   }
  5723     04A3  3001               	movlw	1
  5724     04A4  0020               	movlb	0	; select bank0
  5725     04A5  00E3               	movwf	??_LIN_sendPacket
  5726     04A6  0863               	movf	??_LIN_sendPacket,w
  5727     04A7  07E5               	addwf	LIN_sendPacket@i,f
  5728     04A8                     l2553:
  5729     04A8  0864               	movf	LIN_sendPacket@length,w
  5730     04A9  0265               	subwf	LIN_sendPacket@i,w
  5731     04AA  1C03               	skipc
  5732     04AB  2CAD               	goto	u1951
  5733     04AC  2CAE               	goto	u1950
  5734     04AD                     u1951:
  5735     04AD  2C99               	goto	l2549
  5736     04AE                     u1950:
  5737     04AE                     l2555:
  5738                           
  5739                           ;D:\yiming\00work\FR752.X\mcc_generated_files\LINDrivers\lin_slave.c: 201:   EUSART_Writ
      +                          e(LIN_getChecksum(length, pid, data));
  5740     04AE  0879               	movf	LIN_sendPacket@pid,w
  5741     04AF  00F1               	movwf	LIN_getChecksum@pid
  5742     04B0  087A               	movf	LIN_sendPacket@data,w
  5743     04B1  00F2               	movwf	LIN_getChecksum@data
  5744     04B2  0864               	movf	LIN_sendPacket@length,w
  5745     04B3  3183  23EF  3184   	fcall	_LIN_getChecksum
  5746     04B6  3184  2422  3184   	fcall	_EUSART_Write
  5747     04B9                     l213:
  5748     04B9  0008               	return
  5749     04BA                     __end_of_LIN_sendPacket:
  5750                           
  5751                           	psect	text35
  5752     03EF                     __ptext35:	
  5753 ;; *************** function _LIN_getChecksum *****************
  5754 ;; Defined at:
  5755 ;;		line 272 in file "D:\yiming\00work\FR752.X\mcc_generated_files\LINDrivers\lin_slave.c"
  5756 ;; Parameters:    Size  Location     Type
  5757 ;;  length          1    wreg     unsigned char 
  5758 ;;  pid             1    1[COMMON] unsigned char 
  5759 ;;  data            1    2[COMMON] PTR unsigned char 
  5760 ;;		 -> LIN_packet(13), 
  5761 ;; Auto vars:     Size  Location     Type
  5762 ;;  length          1    5[COMMON] unsigned char 
  5763 ;;  i               1    6[COMMON] unsigned char 
  5764 ;;  checksum        2    7[COMMON] unsigned short 
  5765 ;; Return value:  Size  Location     Type
  5766 ;;                  1    wreg      unsigned char 
  5767 ;; Registers used:
  5768 ;;		wreg, fsr1l, fsr1h, status,2, status,0
  5769 ;; Tracked objects:
  5770 ;;		On entry : 0/0
  5771 ;;		On exit  : 0/0
  5772 ;;		Unchanged: 0/0
  5773 ;; Data sizes:     COMMON   BANK0   BANK1   BANK2   BANK3   BANK4   BANK5   BANK6
  5774 ;;      Params:         2       0       0       0       0       0       0       0
  5775 ;;      Locals:         4       0       0       0       0       0       0       0
  5776 ;;      Temps:          2       0       0       0       0       0       0       0
  5777 ;;      Totals:         8       0       0       0       0       0       0       0
  5778 ;;Total ram usage:        8 bytes
  5779 ;; Hardware stack levels used: 1
  5780 ;; Hardware stack levels required when called: 4
  5781 ;; This function calls:
  5782 ;;		Nothing
  5783 ;; This function is called by:
  5784 ;;		_LIN_queuePacket
  5785 ;;		_LIN_handler
  5786 ;;		_LIN_sendPacket
  5787 ;; This function uses a non-reentrant model
  5788 ;;
  5789                           
  5790     03EF                     _LIN_getChecksum:	
  5791                           ;psect for function _LIN_getChecksum
  5792                           
  5793                           
  5794                           ;incstack = 0
  5795                           ; Regs used in _LIN_getChecksum: [wreg+fsr1l+fsr1h+status,2+status,0]
  5796                           ;LIN_getChecksum@length stored from wreg
  5797     03EF  00F5               	movwf	LIN_getChecksum@length
  5798     03F0                     l1931:
  5799                           
  5800                           ;D:\yiming\00work\FR752.X\mcc_generated_files\LINDrivers\lin_slave.c: 273:   uint16_t ch
      +                          ecksum = pid;
  5801     03F0  0871               	movf	LIN_getChecksum@pid,w
  5802     03F1  00F3               	movwf	??_LIN_getChecksum
  5803     03F2  01F4               	clrf	??_LIN_getChecksum+1
  5804     03F3  0873               	movf	??_LIN_getChecksum,w
  5805     03F4  00F7               	movwf	LIN_getChecksum@checksum
  5806     03F5  0874               	movf	??_LIN_getChecksum+1,w
  5807     03F6  00F8               	movwf	LIN_getChecksum@checksum+1
  5808     03F7                     l1933:
  5809                           
  5810                           ;D:\yiming\00work\FR752.X\mcc_generated_files\LINDrivers\lin_slave.c: 275:   for (uint8_
      +                          t i = 0; i < length; i++) {
  5811     03F7  01F6               	clrf	LIN_getChecksum@i
  5812     03F8  2C18               	goto	l1945
  5813     03F9                     l1935:
  5814                           
  5815                           ;D:\yiming\00work\FR752.X\mcc_generated_files\LINDrivers\lin_slave.c: 276:     checksum 
      +                          = checksum + *data++;
  5816     03F9  0872               	movf	LIN_getChecksum@data,w
  5817     03FA  0086               	movwf	6
  5818     03FB  0187               	clrf	7
  5819     03FC  0801               	movf	1,w
  5820     03FD  0777               	addwf	LIN_getChecksum@checksum,w
  5821     03FE  00F7               	movwf	LIN_getChecksum@checksum
  5822     03FF  0878               	movf	LIN_getChecksum@checksum+1,w
  5823     0400  1803               	skipnc
  5824     0401  0A78               	incf	LIN_getChecksum@checksum+1,w
  5825     0402  00F8               	movwf	LIN_getChecksum@checksum+1
  5826     0403                     l1937:
  5827     0403  3001               	movlw	1
  5828     0404  00F3               	movwf	??_LIN_getChecksum
  5829     0405  0873               	movf	??_LIN_getChecksum,w
  5830     0406  07F2               	addwf	LIN_getChecksum@data,f
  5831     0407                     l1939:
  5832                           
  5833                           ;D:\yiming\00work\FR752.X\mcc_generated_files\LINDrivers\lin_slave.c: 277:     if (check
      +                          sum > 0xFF)
  5834     0407  3001               	movlw	1
  5835     0408  0278               	subwf	LIN_getChecksum@checksum+1,w
  5836     0409  3000               	movlw	0
  5837     040A  1903               	skipnz
  5838     040B  0277               	subwf	LIN_getChecksum@checksum,w
  5839     040C  1C03               	skipc
  5840     040D  2C0F               	goto	u1011
  5841     040E  2C10               	goto	u1010
  5842     040F                     u1011:
  5843     040F  2C14               	goto	l1943
  5844     0410                     u1010:
  5845     0410                     l1941:
  5846                           
  5847                           ;D:\yiming\00work\FR752.X\mcc_generated_files\LINDrivers\lin_slave.c: 278:       checksu
      +                          m -= 0xFF;
  5848     0410  30FF               	movlw	255
  5849     0411  02F7               	subwf	LIN_getChecksum@checksum,f
  5850     0412  3000               	movlw	0
  5851     0413  3BF8               	subwfb	LIN_getChecksum@checksum+1,f
  5852     0414                     l1943:
  5853                           
  5854                           ;D:\yiming\00work\FR752.X\mcc_generated_files\LINDrivers\lin_slave.c: 279:   }
  5855     0414  3001               	movlw	1
  5856     0415  00F3               	movwf	??_LIN_getChecksum
  5857     0416  0873               	movf	??_LIN_getChecksum,w
  5858     0417  07F6               	addwf	LIN_getChecksum@i,f
  5859     0418                     l1945:
  5860     0418  0875               	movf	LIN_getChecksum@length,w
  5861     0419  0276               	subwf	LIN_getChecksum@i,w
  5862     041A  1C03               	skipc
  5863     041B  2C1D               	goto	u1021
  5864     041C  2C1E               	goto	u1020
  5865     041D                     u1021:
  5866     041D  2BF9               	goto	l1935
  5867     041E                     u1020:
  5868     041E                     l244:
  5869                           
  5870                           ;D:\yiming\00work\FR752.X\mcc_generated_files\LINDrivers\lin_slave.c: 280:   checksum = 
      +                          ~checksum;
  5871     041E  09F7               	comf	LIN_getChecksum@checksum,f
  5872     041F  09F8               	comf	LIN_getChecksum@checksum+1,f
  5873     0420                     l1947:
  5874                           
  5875                           ;D:\yiming\00work\FR752.X\mcc_generated_files\LINDrivers\lin_slave.c: 282:   return (uin
      +                          t8_t)checksum;
  5876     0420  0877               	movf	LIN_getChecksum@checksum,w
  5877     0421                     l245:
  5878     0421  0008               	return
  5879     0422                     __end_of_LIN_getChecksum:
  5880                           
  5881                           	psect	text36
  5882     0422                     __ptext36:	
  5883 ;; *************** function _EUSART_Write *****************
  5884 ;; Defined at:
  5885 ;;		line 173 in file "D:\yiming\00work\FR752.X\mcc_generated_files\eusart.c"
  5886 ;; Parameters:    Size  Location     Type
  5887 ;;  txData          1    wreg     unsigned char 
  5888 ;; Auto vars:     Size  Location     Type
  5889 ;;  txData          1    2[COMMON] unsigned char 
  5890 ;; Return value:  Size  Location     Type
  5891 ;;                  1    wreg      void 
  5892 ;; Registers used:
  5893 ;;		wreg, fsr1l, fsr1h, status,2, status,0
  5894 ;; Tracked objects:
  5895 ;;		On entry : 0/0
  5896 ;;		On exit  : 0/0
  5897 ;;		Unchanged: 0/0
  5898 ;; Data sizes:     COMMON   BANK0   BANK1   BANK2   BANK3   BANK4   BANK5   BANK6
  5899 ;;      Params:         0       0       0       0       0       0       0       0
  5900 ;;      Locals:         1       0       0       0       0       0       0       0
  5901 ;;      Temps:          1       0       0       0       0       0       0       0
  5902 ;;      Totals:         2       0       0       0       0       0       0       0
  5903 ;;Total ram usage:        2 bytes
  5904 ;; Hardware stack levels used: 1
  5905 ;; Hardware stack levels required when called: 4
  5906 ;; This function calls:
  5907 ;;		Nothing
  5908 ;; This function is called by:
  5909 ;;		_LIN_sendPacket
  5910 ;; This function uses a non-reentrant model
  5911 ;;
  5912                           
  5913     0422                     _EUSART_Write:	
  5914                           ;psect for function _EUSART_Write
  5915                           
  5916                           
  5917                           ;incstack = 0
  5918                           ; Regs used in _EUSART_Write: [wreg+fsr1l+fsr1h+status,2+status,0]
  5919                           ;EUSART_Write@txData stored from wreg
  5920     0422  00F2               	movwf	EUSART_Write@txData
  5921     0423                     l1959:
  5922     0423                     l1961:	
  5923                           ;D:\yiming\00work\FR752.X\mcc_generated_files\eusart.c: 173: void EUSART_Write(uint8_t t
      +                          xData);D:\yiming\00work\FR752.X\mcc_generated_files\eusart.c: 174: {;D:\yiming\00work\FR
      +                          752.X\mcc_generated_files\eusart.c: 175:     while(0 == eusartTxBufferRemaining)
  5924                           
  5925                           
  5926                           ;D:\yiming\00work\FR752.X\mcc_generated_files\eusart.c: 175:     while(0 == eusartTxBuff
      +                          erRemaining)
  5927     0423  0020               	movlb	0	; select bank0
  5928     0424  084B               	movf	_eusartTxBufferRemaining,w	;volatile
  5929     0425  1903               	btfsc	3,2
  5930     0426  2C28               	goto	u1041
  5931     0427  2C29               	goto	u1040
  5932     0428                     u1041:
  5933     0428  2C23               	goto	l1961
  5934     0429                     u1040:
  5935     0429                     l387:
  5936                           
  5937                           ;D:\yiming\00work\FR752.X\mcc_generated_files\eusart.c: 179:     if(0 == PIE1bits.TXIE)
  5938     0429  0021               	movlb	1	; select bank1
  5939     042A  1A11               	btfsc	17,4	;volatile
  5940     042B  2C2D               	goto	u1051
  5941     042C  2C2E               	goto	u1050
  5942     042D                     u1051:
  5943     042D  2C32               	goto	l388
  5944     042E                     u1050:
  5945     042E                     l1963:
  5946                           
  5947                           ;D:\yiming\00work\FR752.X\mcc_generated_files\eusart.c: 180:     {;D:\yiming\00work\FR75
      +                          2.X\mcc_generated_files\eusart.c: 181:         TXREG = txData;
  5948     042E  0872               	movf	EUSART_Write@txData,w
  5949     042F  0023               	movlb	3	; select bank3
  5950     0430  009A               	movwf	26	;volatile
  5951                           
  5952                           ;D:\yiming\00work\FR752.X\mcc_generated_files\eusart.c: 182:     }
  5953     0431  2C47               	goto	l1975
  5954     0432                     l388:	
  5955                           ;D:\yiming\00work\FR752.X\mcc_generated_files\eusart.c: 183:     else
  5956                           
  5957                           
  5958                           ;D:\yiming\00work\FR752.X\mcc_generated_files\eusart.c: 184:     {;D:\yiming\00work\FR75
      +                          2.X\mcc_generated_files\eusart.c: 185:         PIE1bits.TXIE = 0;
  5959     0432  1211               	bcf	17,4	;volatile
  5960     0433                     l1965:
  5961                           
  5962                           ;D:\yiming\00work\FR752.X\mcc_generated_files\eusart.c: 186:         eusartTxBuffer[eusa
      +                          rtTxHead++] = txData;
  5963     0433  0020               	movlb	0	; select bank0
  5964     0434  084D               	movf	_eusartTxHead,w
  5965     0435  3E30               	addlw	(low (_eusartTxBuffer| 0))& (0+255)
  5966     0436  0086               	movwf	6
  5967     0437  0187               	clrf	7
  5968     0438  0872               	movf	EUSART_Write@txData,w
  5969     0439  0081               	movwf	1
  5970     043A                     l1967:
  5971     043A  3001               	movlw	1
  5972     043B  00F1               	movwf	??_EUSART_Write
  5973     043C  0871               	movf	??_EUSART_Write,w
  5974     043D  07CD               	addwf	_eusartTxHead,f	;volatile
  5975     043E                     l1969:
  5976                           
  5977                           ;D:\yiming\00work\FR752.X\mcc_generated_files\eusart.c: 187:         if(sizeof(eusartTxB
      +                          uffer) <= eusartTxHead)
  5978     043E  3008               	movlw	8
  5979     043F  024D               	subwf	_eusartTxHead,w	;volatile
  5980     0440  1C03               	skipc
  5981     0441  2C43               	goto	u1061
  5982     0442  2C44               	goto	u1060
  5983     0443                     u1061:
  5984     0443  2C45               	goto	l1973
  5985     0444                     u1060:
  5986     0444                     l1971:
  5987                           
  5988                           ;D:\yiming\00work\FR752.X\mcc_generated_files\eusart.c: 188:         {;D:\yiming\00work\
      +                          FR752.X\mcc_generated_files\eusart.c: 189:             eusartTxHead = 0;
  5989     0444  01CD               	clrf	_eusartTxHead	;volatile
  5990     0445                     l1973:
  5991                           
  5992                           ;D:\yiming\00work\FR752.X\mcc_generated_files\eusart.c: 191:         eusartTxBufferRemai
      +                          ning--;
  5993     0445  3001               	movlw	1
  5994     0446  02CB               	subwf	_eusartTxBufferRemaining,f	;volatile
  5995     0447                     l1975:
  5996                           
  5997                           ;D:\yiming\00work\FR752.X\mcc_generated_files\eusart.c: 193:     PIE1bits.TXIE = 1;
  5998     0447  0021               	movlb	1	; select bank1
  5999     0448  1611               	bsf	17,4	;volatile
  6000     0449                     l391:
  6001     0449  0008               	return
  6002     044A                     __end_of_EUSART_Write:
  6003                           
  6004                           	psect	text37
  6005     0693                     __ptext37:	
  6006 ;; *************** function _LIN_enableRx *****************
  6007 ;; Defined at:
  6008 ;;		line 312 in file "D:\yiming\00work\FR752.X\mcc_generated_files\LINDrivers\lin_slave.c"
  6009 ;; Parameters:    Size  Location     Type
  6010 ;;		None
  6011 ;; Auto vars:     Size  Location     Type
  6012 ;;		None
  6013 ;; Return value:  Size  Location     Type
  6014 ;;                  1    wreg      void 
  6015 ;; Registers used:
  6016 ;;		None
  6017 ;; Tracked objects:
  6018 ;;		On entry : 0/0
  6019 ;;		On exit  : 0/0
  6020 ;;		Unchanged: 0/0
  6021 ;; Data sizes:     COMMON   BANK0   BANK1   BANK2   BANK3   BANK4   BANK5   BANK6
  6022 ;;      Params:         0       0       0       0       0       0       0       0
  6023 ;;      Locals:         0       0       0       0       0       0       0       0
  6024 ;;      Temps:          0       0       0       0       0       0       0       0
  6025 ;;      Totals:         0       0       0       0       0       0       0       0
  6026 ;;Total ram usage:        0 bytes
  6027 ;; Hardware stack levels used: 1
  6028 ;; Hardware stack levels required when called: 4
  6029 ;; This function calls:
  6030 ;;		Nothing
  6031 ;; This function is called by:
  6032 ;;		_LIN_init
  6033 ;;		_LIN_handler
  6034 ;; This function uses a non-reentrant model
  6035 ;;
  6036                           
  6037     0693                     _LIN_enableRx:	
  6038                           ;psect for function _LIN_enableRx
  6039                           
  6040     0693                     l1919:	
  6041                           ;incstack = 0
  6042                           ; Regs used in _LIN_enableRx: []
  6043                           
  6044                           
  6045                           ;D:\yiming\00work\FR752.X\mcc_generated_files\LINDrivers\lin_slave.c: 313:   RCSTAbits.C
      +                          REN = 1;
  6046     0693  0023               	movlb	3	; select bank3
  6047     0694  161D               	bsf	29,4	;volatile
  6048                           
  6049                           ;D:\yiming\00work\FR752.X\mcc_generated_files\LINDrivers\lin_slave.c: 314:   PIE1bits.RC
      +                          IE = 1;
  6050     0695  0021               	movlb	1	; select bank1
  6051     0696  1691               	bsf	17,5	;volatile
  6052     0697                     l261:
  6053     0697  0008               	return
  6054     0698                     __end_of_LIN_enableRx:
  6055                           
  6056                           	psect	text38
  6057     0698                     __ptext38:	
  6058 ;; *************** function _LIN_disableRx *****************
  6059 ;; Defined at:
  6060 ;;		line 317 in file "D:\yiming\00work\FR752.X\mcc_generated_files\LINDrivers\lin_slave.c"
  6061 ;; Parameters:    Size  Location     Type
  6062 ;;		None
  6063 ;; Auto vars:     Size  Location     Type
  6064 ;;		None
  6065 ;; Return value:  Size  Location     Type
  6066 ;;                  1    wreg      void 
  6067 ;; Registers used:
  6068 ;;		None
  6069 ;; Tracked objects:
  6070 ;;		On entry : 0/0
  6071 ;;		On exit  : 0/0
  6072 ;;		Unchanged: 0/0
  6073 ;; Data sizes:     COMMON   BANK0   BANK1   BANK2   BANK3   BANK4   BANK5   BANK6
  6074 ;;      Params:         0       0       0       0       0       0       0       0
  6075 ;;      Locals:         0       0       0       0       0       0       0       0
  6076 ;;      Temps:          0       0       0       0       0       0       0       0
  6077 ;;      Totals:         0       0       0       0       0       0       0       0
  6078 ;;Total ram usage:        0 bytes
  6079 ;; Hardware stack levels used: 1
  6080 ;; Hardware stack levels required when called: 4
  6081 ;; This function calls:
  6082 ;;		Nothing
  6083 ;; This function is called by:
  6084 ;;		_LIN_handler
  6085 ;; This function uses a non-reentrant model
  6086 ;;
  6087                           
  6088     0698                     _LIN_disableRx:	
  6089                           ;psect for function _LIN_disableRx
  6090                           
  6091     0698                     l2267:	
  6092                           ;incstack = 0
  6093                           ; Regs used in _LIN_disableRx: []
  6094                           
  6095                           
  6096                           ;D:\yiming\00work\FR752.X\mcc_generated_files\LINDrivers\lin_slave.c: 318:   RCSTAbits.C
      +                          REN = 0;
  6097     0698  0023               	movlb	3	; select bank3
  6098     0699  121D               	bcf	29,4	;volatile
  6099                           
  6100                           ;D:\yiming\00work\FR752.X\mcc_generated_files\LINDrivers\lin_slave.c: 319:   PIE1bits.RC
      +                          IE = 0;
  6101     069A  0021               	movlb	1	; select bank1
  6102     069B  1291               	bcf	17,5	;volatile
  6103     069C                     l264:
  6104     069C  0008               	return
  6105     069D                     __end_of_LIN_disableRx:
  6106                           
  6107                           	psect	text39
  6108     052D                     __ptext39:	
  6109 ;; *************** function _LIN_checkPID *****************
  6110 ;; Defined at:
  6111 ;;		line 244 in file "D:\yiming\00work\FR752.X\mcc_generated_files\LINDrivers\lin_slave.c"
  6112 ;; Parameters:    Size  Location     Type
  6113 ;;  pid             1    wreg     unsigned char 
  6114 ;; Auto vars:     Size  Location     Type
  6115 ;;  pid             1    8[COMMON] unsigned char 
  6116 ;; Return value:  Size  Location     Type
  6117 ;;                  1    wreg      _Bool 
  6118 ;; Registers used:
  6119 ;;		wreg, fsr0l, fsr0h, status,2, status,0, pclath, cstack
  6120 ;; Tracked objects:
  6121 ;;		On entry : 0/0
  6122 ;;		On exit  : 0/0
  6123 ;;		Unchanged: 0/0
  6124 ;; Data sizes:     COMMON   BANK0   BANK1   BANK2   BANK3   BANK4   BANK5   BANK6
  6125 ;;      Params:         0       0       0       0       0       0       0       0
  6126 ;;      Locals:         1       0       0       0       0       0       0       0
  6127 ;;      Temps:          0       0       0       0       0       0       0       0
  6128 ;;      Totals:         1       0       0       0       0       0       0       0
  6129 ;;Total ram usage:        1 bytes
  6130 ;; Hardware stack levels used: 1
  6131 ;; Hardware stack levels required when called: 5
  6132 ;; This function calls:
  6133 ;;		_LIN_calcParity
  6134 ;;		_LIN_getFromTable
  6135 ;; This function is called by:
  6136 ;;		_LIN_handler
  6137 ;; This function uses a non-reentrant model
  6138 ;;
  6139                           
  6140     052D                     _LIN_checkPID:	
  6141                           ;psect for function _LIN_checkPID
  6142                           
  6143                           
  6144                           ;incstack = 0
  6145                           ; Regs used in _LIN_checkPID: [wreg-fsr0h+status,2+status,0+pclath+cstack]
  6146                           ;LIN_checkPID@pid stored from wreg
  6147     052D  00F8               	movwf	LIN_checkPID@pid
  6148     052E                     l2251:
  6149                           
  6150                           ;D:\yiming\00work\FR752.X\mcc_generated_files\LINDrivers\lin_slave.c: 245:   if (LIN_get
      +                          FromTable(pid, TYPE) == ERROR)
  6151     052E  01F1               	clrf	LIN_getFromTable@param
  6152     052F  0AF1               	incf	LIN_getFromTable@param,f
  6153     0530  0878               	movf	LIN_checkPID@pid,w
  6154     0531  3183  230E  3185   	fcall	_LIN_getFromTable
  6155     0534  3A02               	xorlw	2
  6156     0535  1D03               	skipz
  6157     0536  2D38               	goto	u1641
  6158     0537  2D39               	goto	u1640
  6159     0538                     u1641:
  6160     0538  2D3B               	goto	l2257
  6161     0539                     u1640:
  6162     0539                     l2253:
  6163                           
  6164                           ;D:\yiming\00work\FR752.X\mcc_generated_files\LINDrivers\lin_slave.c: 246:     return 0;
  6165     0539  3000               	movlw	0
  6166     053A  2D46               	goto	l234
  6167     053B                     l2257:
  6168                           
  6169                           ;D:\yiming\00work\FR752.X\mcc_generated_files\LINDrivers\lin_slave.c: 248:   if (pid == 
      +                          LIN_calcParity(pid & 0x3F))
  6170     053B  0878               	movf	LIN_checkPID@pid,w
  6171     053C  393F               	andlw	63
  6172     053D  3182  221D  3185   	fcall	_LIN_calcParity
  6173     0540  0678               	xorwf	LIN_checkPID@pid,w
  6174     0541  1D03               	skipz
  6175     0542  2D44               	goto	u1651
  6176     0543  2D45               	goto	u1650
  6177     0544                     u1651:
  6178     0544  2D39               	goto	l2253
  6179     0545                     u1650:
  6180     0545                     l2259:
  6181                           
  6182                           ;D:\yiming\00work\FR752.X\mcc_generated_files\LINDrivers\lin_slave.c: 249:     return 1;
  6183     0545  3001               	movlw	1
  6184     0546                     l234:
  6185     0546  0008               	return
  6186     0547                     __end_of_LIN_checkPID:
  6187                           
  6188                           	psect	text40
  6189     030E                     __ptext40:	
  6190 ;; *************** function _LIN_getFromTable *****************
  6191 ;; Defined at:
  6192 ;;		line 213 in file "D:\yiming\00work\FR752.X\mcc_generated_files\LINDrivers\lin_slave.c"
  6193 ;; Parameters:    Size  Location     Type
  6194 ;;  cmd             1    wreg     unsigned char 
  6195 ;;  param           1    1[COMMON] enum E53
  6196 ;; Auto vars:     Size  Location     Type
  6197 ;;  cmd             1    4[COMMON] unsigned char 
  6198 ;;  length          1    5[COMMON] unsigned char 
  6199 ;;  rxCommand       2    6[COMMON] PTR const struct .
  6200 ;;		 -> NULL(0), scheduleTable(4), 
  6201 ;; Return value:  Size  Location     Type
  6202 ;;                  1    wreg      unsigned char 
  6203 ;; Registers used:
  6204 ;;		wreg, fsr0l, fsr0h, status,2, status,0, pclath
  6205 ;; Tracked objects:
  6206 ;;		On entry : 0/0
  6207 ;;		On exit  : 0/0
  6208 ;;		Unchanged: 0/0
  6209 ;; Data sizes:     COMMON   BANK0   BANK1   BANK2   BANK3   BANK4   BANK5   BANK6
  6210 ;;      Params:         1       0       0       0       0       0       0       0
  6211 ;;      Locals:         4       0       0       0       0       0       0       0
  6212 ;;      Temps:          2       0       0       0       0       0       0       0
  6213 ;;      Totals:         7       0       0       0       0       0       0       0
  6214 ;;Total ram usage:        7 bytes
  6215 ;; Hardware stack levels used: 1
  6216 ;; Hardware stack levels required when called: 4
  6217 ;; This function calls:
  6218 ;;		Nothing
  6219 ;; This function is called by:
  6220 ;;		_LIN_handler
  6221 ;;		_LIN_checkPID
  6222 ;; This function uses a non-reentrant model
  6223 ;;
  6224                           
  6225     030E                     _LIN_getFromTable:	
  6226                           ;psect for function _LIN_getFromTable
  6227                           
  6228                           
  6229                           ;incstack = 0
  6230                           ; Regs used in _LIN_getFromTable: [wreg-fsr0h+status,2+status,0+pclath]
  6231                           ;LIN_getFromTable@cmd stored from wreg
  6232     030E  00F4               	movwf	LIN_getFromTable@cmd
  6233     030F                     l2035:
  6234                           
  6235                           ;D:\yiming\00work\FR752.X\mcc_generated_files\LINDrivers\lin_slave.c: 214:   const lin_r
      +                          x_cmd_t *rxCommand =
  6236     030F  0020               	movlb	0	; select bank0
  6237     0310  0845               	movf	_LIN_rxCommand+1,w
  6238     0311  00F7               	movwf	LIN_getFromTable@rxCommand+1
  6239     0312  0844               	movf	_LIN_rxCommand,w
  6240     0313  00F6               	movwf	LIN_getFromTable@rxCommand
  6241     0314                     l2037:
  6242                           
  6243                           ;D:\yiming\00work\FR752.X\mcc_generated_files\LINDrivers\lin_slave.c: 217:   cmd &= 0x3F
      +                          ;
  6244     0314  303F               	movlw	63
  6245     0315  00F2               	movwf	??_LIN_getFromTable
  6246     0316  0872               	movf	??_LIN_getFromTable,w
  6247     0317  05F4               	andwf	LIN_getFromTable@cmd,f
  6248     0318                     l2039:
  6249                           
  6250                           ;D:\yiming\00work\FR752.X\mcc_generated_files\LINDrivers\lin_slave.c: 219:   for (uint8_
      +                          t length = 0; length < LIN_rxCommandLength; length++) {
  6251     0318  01F5               	clrf	LIN_getFromTable@length
  6252     0319  2B3D               	goto	l2053
  6253     031A                     l2041:
  6254                           
  6255                           ;D:\yiming\00work\FR752.X\mcc_generated_files\LINDrivers\lin_slave.c: 220:     if (cmd =
      +                          = rxCommand->cmd) {
  6256     031A  0876               	movf	LIN_getFromTable@rxCommand,w
  6257     031B  0084               	movwf	4
  6258     031C  0877               	movf	LIN_getFromTable@rxCommand+1,w
  6259     031D  0085               	movwf	5
  6260     031E  0800               	movf	0,w	;code access
  6261     031F  0674               	xorwf	LIN_getFromTable@cmd,w
  6262     0320  1D03               	skipz
  6263     0321  2B23               	goto	u1101
  6264     0322  2B24               	goto	u1100
  6265     0323                     u1101:
  6266     0323  2B25               	goto	l2045
  6267     0324                     u1100:
  6268     0324  2B64               	goto	l2069
  6269     0325                     l2045:
  6270                           
  6271                           ;D:\yiming\00work\FR752.X\mcc_generated_files\LINDrivers\lin_slave.c: 223:     rxCommand
      +                          ++;
  6272     0325  3004               	movlw	4
  6273     0326  07F6               	addwf	LIN_getFromTable@rxCommand,f
  6274     0327  3000               	movlw	0
  6275     0328  3DF7               	addwfc	LIN_getFromTable@rxCommand+1,f
  6276                           
  6277                           ;D:\yiming\00work\FR752.X\mcc_generated_files\LINDrivers\lin_slave.c: 225:     if (lengt
      +                          h == (LIN_rxCommandLength - 1)) {
  6278     0329  0852               	movf	_LIN_rxCommandLength,w
  6279     032A  3EFF               	addlw	255
  6280     032B  00F2               	movwf	??_LIN_getFromTable
  6281     032C  30FF               	movlw	255
  6282     032D  1803               	skipnc
  6283     032E  3000               	movlw	0
  6284     032F  00F3               	movwf	??_LIN_getFromTable+1
  6285     0330  0875               	movf	LIN_getFromTable@length,w
  6286     0331  0672               	xorwf	??_LIN_getFromTable,w
  6287     0332  0473               	iorwf	??_LIN_getFromTable+1,w
  6288     0333  1D03               	skipz
  6289     0334  2B36               	goto	u1111
  6290     0335  2B37               	goto	u1110
  6291     0336                     u1111:
  6292     0336  2B39               	goto	l2051
  6293     0337                     u1110:
  6294     0337                     l2047:
  6295                           
  6296                           ;D:\yiming\00work\FR752.X\mcc_generated_files\LINDrivers\lin_slave.c: 226:       return 
      +                          ERROR;
  6297     0337  3002               	movlw	2
  6298     0338  2B77               	goto	l224
  6299     0339                     l2051:
  6300                           
  6301                           ;D:\yiming\00work\FR752.X\mcc_generated_files\LINDrivers\lin_slave.c: 228:   }
  6302     0339  3001               	movlw	1
  6303     033A  00F2               	movwf	??_LIN_getFromTable
  6304     033B  0872               	movf	??_LIN_getFromTable,w
  6305     033C  07F5               	addwf	LIN_getFromTable@length,f
  6306     033D                     l2053:
  6307     033D  0852               	movf	_LIN_rxCommandLength,w
  6308     033E  0275               	subwf	LIN_getFromTable@length,w
  6309     033F  1C03               	skipc
  6310     0340  2B42               	goto	u1121
  6311     0341  2B43               	goto	u1120
  6312     0342                     u1121:
  6313     0342  2B1A               	goto	l2041
  6314     0343                     u1120:
  6315     0343  2B64               	goto	l2069
  6316     0344                     l2055:
  6317                           
  6318                           ;D:\yiming\00work\FR752.X\mcc_generated_files\LINDrivers\lin_slave.c: 232:     return rx
      +                          Command->cmd;
  6319     0344  0876               	movf	LIN_getFromTable@rxCommand,w
  6320     0345  0084               	movwf	4
  6321     0346  0877               	movf	LIN_getFromTable@rxCommand+1,w
  6322     0347  0085               	movwf	5
  6323     0348  0800               	movf	0,w	;code access
  6324     0349  2B77               	goto	l224
  6325     034A                     l2059:
  6326                           
  6327                           ;D:\yiming\00work\FR752.X\mcc_generated_files\LINDrivers\lin_slave.c: 234:     return rx
      +                          Command->type;
  6328     034A  0877               	movf	LIN_getFromTable@rxCommand+1,w
  6329     034B  00F3               	movwf	??_LIN_getFromTable+1
  6330     034C  0876               	movf	LIN_getFromTable@rxCommand,w
  6331     034D  00F2               	movwf	??_LIN_getFromTable
  6332     034E  3001               	movlw	1
  6333     034F  0772               	addwf	??_LIN_getFromTable,w
  6334     0350  0084               	movwf	4
  6335     0351  0873               	movf	??_LIN_getFromTable+1,w
  6336     0352  1803               	skipnc
  6337     0353  0A73               	incf	??_LIN_getFromTable+1,w
  6338     0354  0085               	movwf	5
  6339     0355  0800               	movf	0,w	;code access
  6340     0356  2B77               	goto	l224
  6341     0357                     l2063:
  6342                           
  6343                           ;D:\yiming\00work\FR752.X\mcc_generated_files\LINDrivers\lin_slave.c: 236:     return rx
      +                          Command->length;
  6344     0357  0877               	movf	LIN_getFromTable@rxCommand+1,w
  6345     0358  00F3               	movwf	??_LIN_getFromTable+1
  6346     0359  0876               	movf	LIN_getFromTable@rxCommand,w
  6347     035A  00F2               	movwf	??_LIN_getFromTable
  6348     035B  3002               	movlw	2
  6349     035C  0772               	addwf	??_LIN_getFromTable,w
  6350     035D  0084               	movwf	4
  6351     035E  0873               	movf	??_LIN_getFromTable+1,w
  6352     035F  1803               	skipnc
  6353     0360  0A73               	incf	??_LIN_getFromTable+1,w
  6354     0361  0085               	movwf	5
  6355     0362  0800               	movf	0,w	;code access
  6356     0363  2B77               	goto	l224
  6357     0364                     l2069:
  6358     0364  0871               	movf	LIN_getFromTable@param,w
  6359     0365  00F2               	movwf	??_LIN_getFromTable
  6360     0366  01F3               	clrf	??_LIN_getFromTable+1
  6361                           
  6362                           ; Switch on 2 bytes has been partitioned into a top level switch of size 1, and 1 sub-sw
      +                          itches
  6363                           ; Switch size 1, requested type "simple"
  6364                           ; Number of cases is 1, Range of values is 0 to 0
  6365                           ; switch strategies available:
  6366                           ; Name         Instructions Cycles
  6367                           ; simple_byte            4     3 (average)
  6368                           ; direct_byte            8     6 (fixed)
  6369                           ; jumptable            260     6 (fixed)
  6370                           ;	Chosen strategy is simple_byte
  6371     0367  0873               	movf	??_LIN_getFromTable+1,w
  6372     0368  3A00               	xorlw	0	; case 0
  6373     0369  1903               	skipnz
  6374     036A  2B6C               	goto	l2761
  6375     036B  2B37               	goto	l2047
  6376     036C                     l2761:
  6377                           
  6378                           ; Switch size 1, requested type "simple"
  6379                           ; Number of cases is 3, Range of values is 0 to 2
  6380                           ; switch strategies available:
  6381                           ; Name         Instructions Cycles
  6382                           ; simple_byte           10     6 (average)
  6383                           ; direct_byte           12     6 (fixed)
  6384                           ; jumptable            260     6 (fixed)
  6385                           ;	Chosen strategy is simple_byte
  6386     036C  0872               	movf	??_LIN_getFromTable,w
  6387     036D  3A00               	xorlw	0	; case 0
  6388     036E  1903               	skipnz
  6389     036F  2B44               	goto	l2055
  6390     0370  3A01               	xorlw	1	; case 1
  6391     0371  1903               	skipnz
  6392     0372  2B4A               	goto	l2059
  6393     0373  3A03               	xorlw	3	; case 2
  6394     0374  1903               	skipnz
  6395     0375  2B57               	goto	l2063
  6396     0376  2B37               	goto	l2047
  6397     0377                     l224:
  6398     0377  0008               	return
  6399     0378                     __end_of_LIN_getFromTable:
  6400                           
  6401                           	psect	text41
  6402     021D                     __ptext41:	
  6403 ;; *************** function _LIN_calcParity *****************
  6404 ;; Defined at:
  6405 ;;		line 254 in file "D:\yiming\00work\FR752.X\mcc_generated_files\LINDrivers\lin_slave.c"
  6406 ;; Parameters:    Size  Location     Type
  6407 ;;  CMD             1    wreg     unsigned char 
  6408 ;; Auto vars:     Size  Location     Type
  6409 ;;  CMD             1    2[COMMON] unsigned char 
  6410 ;;  PID             1    3[COMMON] struct .
  6411 ;; Return value:  Size  Location     Type
  6412 ;;                  1    wreg      unsigned char 
  6413 ;; Registers used:
  6414 ;;		wreg, status,0
  6415 ;; Tracked objects:
  6416 ;;		On entry : 0/0
  6417 ;;		On exit  : 0/0
  6418 ;;		Unchanged: 0/0
  6419 ;; Data sizes:     COMMON   BANK0   BANK1   BANK2   BANK3   BANK4   BANK5   BANK6
  6420 ;;      Params:         0       0       0       0       0       0       0       0
  6421 ;;      Locals:         2       0       0       0       0       0       0       0
  6422 ;;      Temps:          1       0       0       0       0       0       0       0
  6423 ;;      Totals:         3       0       0       0       0       0       0       0
  6424 ;;Total ram usage:        3 bytes
  6425 ;; Hardware stack levels used: 1
  6426 ;; Hardware stack levels required when called: 4
  6427 ;; This function calls:
  6428 ;;		Nothing
  6429 ;; This function is called by:
  6430 ;;		_LIN_checkPID
  6431 ;; This function uses a non-reentrant model
  6432 ;;
  6433                           
  6434     021D                     _LIN_calcParity:	
  6435                           ;psect for function _LIN_calcParity
  6436                           
  6437                           
  6438                           ;incstack = 0
  6439                           ; Regs used in _LIN_calcParity: [wreg+status,0]
  6440                           ;LIN_calcParity@CMD stored from wreg
  6441     021D  00F2               	movwf	LIN_calcParity@CMD
  6442     021E                     l2083:
  6443                           
  6444                           ;D:\yiming\00work\FR752.X\mcc_generated_files\LINDrivers\lin_slave.c: 255:   lin_pid_t P
      +                          ID;;D:\yiming\00work\FR752.X\mcc_generated_files\LINDrivers\lin_slave.c: 256:   PID.rawP
      +                          ID = CMD;
  6445     021E  0872               	movf	LIN_calcParity@CMD,w
  6446     021F  00F3               	movwf	LIN_calcParity@PID
  6447                           
  6448                           ;D:\yiming\00work\FR752.X\mcc_generated_files\LINDrivers\lin_slave.c: 261:   PID.P0 = PI
      +                          D.ID0 ^ PID.ID1;
  6449     0220  18F3               	btfsc	LIN_calcParity@PID,1
  6450     0221  2A23               	goto	u1131
  6451     0222  2A25               	goto	u1130
  6452     0223                     u1131:
  6453     0223  3001               	movlw	1
  6454     0224  2A26               	goto	u1132
  6455     0225                     u1130:
  6456     0225  3000               	movlw	0
  6457     0226                     u1132:
  6458     0226  00F1               	movwf	??_LIN_calcParity
  6459     0227  1873               	btfsc	LIN_calcParity@PID,0
  6460     0228  2A2A               	goto	u1141
  6461     0229  2A2C               	goto	u1140
  6462     022A                     u1141:
  6463     022A  3001               	movlw	1
  6464     022B  2A2D               	goto	u1142
  6465     022C                     u1140:
  6466     022C  3000               	movlw	0
  6467     022D                     u1142:
  6468     022D  0671               	xorwf	??_LIN_calcParity,w
  6469     022E  1D03               	skipz
  6470     022F  2A31               	goto	u1151
  6471     0230  2A33               	goto	u1150
  6472     0231                     u1151:
  6473     0231  1773               	bsf	LIN_calcParity@PID,6
  6474     0232  2A34               	goto	u1164
  6475     0233                     u1150:
  6476     0233  1373               	bcf	LIN_calcParity@PID,6
  6477     0234                     u1164:
  6478                           
  6479                           ;D:\yiming\00work\FR752.X\mcc_generated_files\LINDrivers\lin_slave.c: 262:   PID.P0 = PI
      +                          D.P0 ^ PID.ID2;
  6480     0234  1973               	btfsc	LIN_calcParity@PID,2
  6481     0235  2A37               	goto	u1171
  6482     0236  2A39               	goto	u1170
  6483     0237                     u1171:
  6484     0237  3001               	movlw	1
  6485     0238  2A3A               	goto	u1172
  6486     0239                     u1170:
  6487     0239  3000               	movlw	0
  6488     023A                     u1172:
  6489     023A  00F1               	movwf	??_LIN_calcParity
  6490     023B  1B73               	btfsc	LIN_calcParity@PID,6
  6491     023C  2A3E               	goto	u1181
  6492     023D  2A40               	goto	u1180
  6493     023E                     u1181:
  6494     023E  3001               	movlw	1
  6495     023F  2A41               	goto	u1182
  6496     0240                     u1180:
  6497     0240  3000               	movlw	0
  6498     0241                     u1182:
  6499     0241  0671               	xorwf	??_LIN_calcParity,w
  6500     0242  1D03               	skipz
  6501     0243  2A45               	goto	u1191
  6502     0244  2A47               	goto	u1190
  6503     0245                     u1191:
  6504     0245  1773               	bsf	LIN_calcParity@PID,6
  6505     0246  2A48               	goto	u1204
  6506     0247                     u1190:
  6507     0247  1373               	bcf	LIN_calcParity@PID,6
  6508     0248                     u1204:
  6509                           
  6510                           ;D:\yiming\00work\FR752.X\mcc_generated_files\LINDrivers\lin_slave.c: 263:   PID.P0 = PI
      +                          D.P0 ^ PID.ID4;
  6511     0248  1A73               	btfsc	LIN_calcParity@PID,4
  6512     0249  2A4B               	goto	u1211
  6513     024A  2A4D               	goto	u1210
  6514     024B                     u1211:
  6515     024B  3001               	movlw	1
  6516     024C  2A4E               	goto	u1212
  6517     024D                     u1210:
  6518     024D  3000               	movlw	0
  6519     024E                     u1212:
  6520     024E  00F1               	movwf	??_LIN_calcParity
  6521     024F  1B73               	btfsc	LIN_calcParity@PID,6
  6522     0250  2A52               	goto	u1221
  6523     0251  2A54               	goto	u1220
  6524     0252                     u1221:
  6525     0252  3001               	movlw	1
  6526     0253  2A55               	goto	u1222
  6527     0254                     u1220:
  6528     0254  3000               	movlw	0
  6529     0255                     u1222:
  6530     0255  0671               	xorwf	??_LIN_calcParity,w
  6531     0256  1D03               	skipz
  6532     0257  2A59               	goto	u1231
  6533     0258  2A5B               	goto	u1230
  6534     0259                     u1231:
  6535     0259  1773               	bsf	LIN_calcParity@PID,6
  6536     025A  2A5C               	goto	u1244
  6537     025B                     u1230:
  6538     025B  1373               	bcf	LIN_calcParity@PID,6
  6539     025C                     u1244:
  6540                           
  6541                           ;D:\yiming\00work\FR752.X\mcc_generated_files\LINDrivers\lin_slave.c: 264:   PID.P1 = PI
      +                          D.ID1 ^ PID.ID3;
  6542     025C  19F3               	btfsc	LIN_calcParity@PID,3
  6543     025D  2A5F               	goto	u1251
  6544     025E  2A61               	goto	u1250
  6545     025F                     u1251:
  6546     025F  3001               	movlw	1
  6547     0260  2A62               	goto	u1252
  6548     0261                     u1250:
  6549     0261  3000               	movlw	0
  6550     0262                     u1252:
  6551     0262  00F1               	movwf	??_LIN_calcParity
  6552     0263  18F3               	btfsc	LIN_calcParity@PID,1
  6553     0264  2A66               	goto	u1261
  6554     0265  2A68               	goto	u1260
  6555     0266                     u1261:
  6556     0266  3001               	movlw	1
  6557     0267  2A69               	goto	u1262
  6558     0268                     u1260:
  6559     0268  3000               	movlw	0
  6560     0269                     u1262:
  6561     0269  0671               	xorwf	??_LIN_calcParity,w
  6562     026A  1D03               	skipz
  6563     026B  2A6D               	goto	u1271
  6564     026C  2A6F               	goto	u1270
  6565     026D                     u1271:
  6566     026D  17F3               	bsf	LIN_calcParity@PID,7
  6567     026E  2A70               	goto	u1284
  6568     026F                     u1270:
  6569     026F  13F3               	bcf	LIN_calcParity@PID,7
  6570     0270                     u1284:
  6571                           
  6572                           ;D:\yiming\00work\FR752.X\mcc_generated_files\LINDrivers\lin_slave.c: 265:   PID.P1 = PI
      +                          D.P1 ^ PID.ID4;
  6573     0270  1A73               	btfsc	LIN_calcParity@PID,4
  6574     0271  2A73               	goto	u1291
  6575     0272  2A75               	goto	u1290
  6576     0273                     u1291:
  6577     0273  3001               	movlw	1
  6578     0274  2A76               	goto	u1292
  6579     0275                     u1290:
  6580     0275  3000               	movlw	0
  6581     0276                     u1292:
  6582     0276  00F1               	movwf	??_LIN_calcParity
  6583     0277  1BF3               	btfsc	LIN_calcParity@PID,7
  6584     0278  2A7A               	goto	u1301
  6585     0279  2A7C               	goto	u1300
  6586     027A                     u1301:
  6587     027A  3001               	movlw	1
  6588     027B  2A7D               	goto	u1302
  6589     027C                     u1300:
  6590     027C  3000               	movlw	0
  6591     027D                     u1302:
  6592     027D  0671               	xorwf	??_LIN_calcParity,w
  6593     027E  1D03               	skipz
  6594     027F  2A81               	goto	u1311
  6595     0280  2A83               	goto	u1310
  6596     0281                     u1311:
  6597     0281  17F3               	bsf	LIN_calcParity@PID,7
  6598     0282  2A84               	goto	u1324
  6599     0283                     u1310:
  6600     0283  13F3               	bcf	LIN_calcParity@PID,7
  6601     0284                     u1324:
  6602                           
  6603                           ;D:\yiming\00work\FR752.X\mcc_generated_files\LINDrivers\lin_slave.c: 266:   PID.P1 = PI
      +                          D.P1 ^ PID.ID5;
  6604     0284  1AF3               	btfsc	LIN_calcParity@PID,5
  6605     0285  2A87               	goto	u1331
  6606     0286  2A89               	goto	u1330
  6607     0287                     u1331:
  6608     0287  3001               	movlw	1
  6609     0288  2A8A               	goto	u1332
  6610     0289                     u1330:
  6611     0289  3000               	movlw	0
  6612     028A                     u1332:
  6613     028A  00F1               	movwf	??_LIN_calcParity
  6614     028B  1BF3               	btfsc	LIN_calcParity@PID,7
  6615     028C  2A8E               	goto	u1341
  6616     028D  2A90               	goto	u1340
  6617     028E                     u1341:
  6618     028E  3001               	movlw	1
  6619     028F  2A91               	goto	u1342
  6620     0290                     u1340:
  6621     0290  3000               	movlw	0
  6622     0291                     u1342:
  6623     0291  0671               	xorwf	??_LIN_calcParity,w
  6624     0292  1D03               	skipz
  6625     0293  2A95               	goto	u1351
  6626     0294  2A97               	goto	u1350
  6627     0295                     u1351:
  6628     0295  17F3               	bsf	LIN_calcParity@PID,7
  6629     0296  2A98               	goto	u1364
  6630     0297                     u1350:
  6631     0297  13F3               	bcf	LIN_calcParity@PID,7
  6632     0298                     u1364:
  6633     0298                     l2085:
  6634                           
  6635                           ;D:\yiming\00work\FR752.X\mcc_generated_files\LINDrivers\lin_slave.c: 267:   PID.P1 = ~P
      +                          ID.P1;
  6636     0298  1003               	clrc
  6637     0299  1FF3               	btfss	LIN_calcParity@PID,7
  6638     029A  1403               	setc
  6639     029B  1803               	btfsc	3,0
  6640     029C  2A9E               	goto	u1371
  6641     029D  2AA0               	goto	u1370
  6642     029E                     u1371:
  6643     029E  17F3               	bsf	LIN_calcParity@PID,7
  6644     029F  2AA1               	goto	u1384
  6645     02A0                     u1370:
  6646     02A0  13F3               	bcf	LIN_calcParity@PID,7
  6647     02A1                     u1384:
  6648     02A1                     l2087:
  6649                           
  6650                           ;D:\yiming\00work\FR752.X\mcc_generated_files\LINDrivers\lin_slave.c: 269:   return PID.
      +                          rawPID;
  6651     02A1  0873               	movf	LIN_calcParity@PID,w
  6652     02A2                     l238:
  6653     02A2  0008               	return
  6654     02A3                     __end_of_LIN_calcParity:
  6655                           
  6656                           	psect	text42
  6657     05B9                     __ptext42:	
  6658 ;; *************** function _LIN_breakCheck *****************
  6659 ;; Defined at:
  6660 ;;		line 322 in file "D:\yiming\00work\FR752.X\mcc_generated_files\LINDrivers\lin_slave.c"
  6661 ;; Parameters:    Size  Location     Type
  6662 ;;		None
  6663 ;; Auto vars:     Size  Location     Type
  6664 ;;		None
  6665 ;; Return value:  Size  Location     Type
  6666 ;;                  1    wreg      _Bool 
  6667 ;; Registers used:
  6668 ;;		wreg, fsr1l, fsr1h, status,2, status,0, pclath, cstack
  6669 ;; Tracked objects:
  6670 ;;		On entry : 0/0
  6671 ;;		On exit  : 0/0
  6672 ;;		Unchanged: 0/0
  6673 ;; Data sizes:     COMMON   BANK0   BANK1   BANK2   BANK3   BANK4   BANK5   BANK6
  6674 ;;      Params:         0       0       0       0       0       0       0       0
  6675 ;;      Locals:         0       0       0       0       0       0       0       0
  6676 ;;      Temps:          0       0       0       0       0       0       0       0
  6677 ;;      Totals:         0       0       0       0       0       0       0       0
  6678 ;;Total ram usage:        0 bytes
  6679 ;; Hardware stack levels used: 1
  6680 ;; Hardware stack levels required when called: 5
  6681 ;; This function calls:
  6682 ;;		_EUSART_Read
  6683 ;;		_EUSART_get_last_status
  6684 ;; This function is called by:
  6685 ;;		_LIN_handler
  6686 ;; This function uses a non-reentrant model
  6687 ;;
  6688                           
  6689     05B9                     _LIN_breakCheck:	
  6690                           ;psect for function _LIN_breakCheck
  6691                           
  6692     05B9                     l2239:	
  6693                           ;incstack = 0
  6694                           ; Regs used in _LIN_breakCheck: [wreg+fsr1l+fsr1h+status,2+status,0+pclath+cstack]
  6695                           
  6696                           
  6697                           ;D:\yiming\00work\FR752.X\mcc_generated_files\LINDrivers\lin_slave.c: 324:   if ((EUSART
      +                          _Read() == 0x00) && (EUSART_get_last_status().ferr == 1)) {
  6698     05B9  3184  244A  3185   	fcall	_EUSART_Read
  6699     05BC  3A00               	xorlw	0
  6700     05BD  1D03               	skipz
  6701     05BE  2DC0               	goto	u1621
  6702     05BF  2DC1               	goto	u1620
  6703     05C0                     u1621:
  6704     05C0  2DCA               	goto	l2247
  6705     05C1                     u1620:
  6706     05C1                     l2241:
  6707     05C1  3186  26B3  3185   	fcall	_EUSART_get_last_status
  6708     05C4  1C89               	btfss	9,1
  6709     05C5  2DC7               	goto	u1631
  6710     05C6  2DC8               	goto	u1630
  6711     05C7                     u1631:
  6712     05C7  2DCA               	goto	l2247
  6713     05C8                     u1630:
  6714     05C8                     l2243:
  6715                           
  6716                           ;D:\yiming\00work\FR752.X\mcc_generated_files\LINDrivers\lin_slave.c: 325:     return 1;
  6717     05C8  3001               	movlw	1
  6718     05C9  2DCB               	goto	l268
  6719     05CA                     l2247:
  6720                           
  6721                           ;D:\yiming\00work\FR752.X\mcc_generated_files\LINDrivers\lin_slave.c: 328:   return 0;
  6722     05CA  3000               	movlw	0
  6723     05CB                     l268:
  6724     05CB  0008               	return
  6725     05CC                     __end_of_LIN_breakCheck:
  6726                           
  6727                           	psect	text43
  6728     06B3                     __ptext43:	
  6729 ;; *************** function _EUSART_get_last_status *****************
  6730 ;; Defined at:
  6731 ;;		line 147 in file "D:\yiming\00work\FR752.X\mcc_generated_files\eusart.c"
  6732 ;; Parameters:    Size  Location     Type
  6733 ;;		None
  6734 ;; Auto vars:     Size  Location     Type
  6735 ;;		None
  6736 ;; Return value:  Size  Location     Type
  6737 ;;                  1    wreg      struct .
  6738 ;; Registers used:
  6739 ;;		wreg
  6740 ;; Tracked objects:
  6741 ;;		On entry : 0/0
  6742 ;;		On exit  : 0/0
  6743 ;;		Unchanged: 0/0
  6744 ;; Data sizes:     COMMON   BANK0   BANK1   BANK2   BANK3   BANK4   BANK5   BANK6
  6745 ;;      Params:         0       0       0       0       0       0       0       0
  6746 ;;      Locals:         0       0       0       0       0       0       0       0
  6747 ;;      Temps:          0       0       0       0       0       0       0       0
  6748 ;;      Totals:         0       0       0       0       0       0       0       0
  6749 ;;Total ram usage:        0 bytes
  6750 ;; Hardware stack levels used: 1
  6751 ;; Hardware stack levels required when called: 4
  6752 ;; This function calls:
  6753 ;;		Nothing
  6754 ;; This function is called by:
  6755 ;;		_LIN_breakCheck
  6756 ;; This function uses a non-reentrant model
  6757 ;;
  6758                           
  6759     06B3                     _EUSART_get_last_status:	
  6760                           ;psect for function _EUSART_get_last_status
  6761                           
  6762     06B3                     l2093:	
  6763                           ;incstack = 0
  6764                           ; Regs used in _EUSART_get_last_status: [wreg]
  6765                           
  6766                           
  6767                           ;D:\yiming\00work\FR752.X\mcc_generated_files\eusart.c: 148:     return eusartRxLastErro
      +                          r;
  6768     06B3  0020               	movlb	0	; select bank0
  6769     06B4  0849               	movf	_eusartRxLastError,w	;volatile
  6770     06B5                     l375:
  6771     06B5  0008               	return
  6772     06B6                     __end_of_EUSART_get_last_status:
  6773                           
  6774                           	psect	text44
  6775     044A                     __ptext44:	
  6776 ;; *************** function _EUSART_Read *****************
  6777 ;; Defined at:
  6778 ;;		line 151 in file "D:\yiming\00work\FR752.X\mcc_generated_files\eusart.c"
  6779 ;; Parameters:    Size  Location     Type
  6780 ;;		None
  6781 ;; Auto vars:     Size  Location     Type
  6782 ;;  readValue       1    2[COMMON] unsigned char 
  6783 ;; Return value:  Size  Location     Type
  6784 ;;                  1    wreg      unsigned char 
  6785 ;; Registers used:
  6786 ;;		wreg, fsr1l, fsr1h, status,2, status,0
  6787 ;; Tracked objects:
  6788 ;;		On entry : 0/0
  6789 ;;		On exit  : 0/0
  6790 ;;		Unchanged: 0/0
  6791 ;; Data sizes:     COMMON   BANK0   BANK1   BANK2   BANK3   BANK4   BANK5   BANK6
  6792 ;;      Params:         0       0       0       0       0       0       0       0
  6793 ;;      Locals:         1       0       0       0       0       0       0       0
  6794 ;;      Temps:          1       0       0       0       0       0       0       0
  6795 ;;      Totals:         2       0       0       0       0       0       0       0
  6796 ;;Total ram usage:        2 bytes
  6797 ;; Hardware stack levels used: 1
  6798 ;; Hardware stack levels required when called: 4
  6799 ;; This function calls:
  6800 ;;		Nothing
  6801 ;; This function is called by:
  6802 ;;		_LIN_handler
  6803 ;;		_LIN_breakCheck
  6804 ;; This function uses a non-reentrant model
  6805 ;;
  6806                           
  6807     044A                     _EUSART_Read:	
  6808                           ;psect for function _EUSART_Read
  6809                           
  6810     044A                     l2013:	
  6811                           ;incstack = 0
  6812                           ; Regs used in _EUSART_Read: [wreg+fsr1l+fsr1h+status,2+status,0]
  6813                           
  6814     044A                     l2015:	
  6815                           ;D:\yiming\00work\FR752.X\mcc_generated_files\eusart.c: 155:     while(0 == eusartRxCoun
      +                          t)
  6816                           
  6817                           
  6818                           ;D:\yiming\00work\FR752.X\mcc_generated_files\eusart.c: 155:     while(0 == eusartRxCoun
      +                          t)
  6819     044A  0020               	movlb	0	; select bank0
  6820     044B  084A               	movf	_eusartRxCount,w	;volatile
  6821     044C  1903               	btfsc	3,2
  6822     044D  2C4F               	goto	u1081
  6823     044E  2C50               	goto	u1080
  6824     044F                     u1081:
  6825     044F  2C4A               	goto	l2015
  6826     0450                     u1080:
  6827     0450                     l2017:
  6828                           
  6829                           ;D:\yiming\00work\FR752.X\mcc_generated_files\eusart.c: 159:     eusartRxLastError = eus
      +                          artRxStatusBuffer[eusartRxTail];
  6830     0450  087B               	movf	_eusartRxTail,w	;volatile
  6831     0451  3E20               	addlw	(low (_eusartRxStatusBuffer| 0))& (0+255)
  6832     0452  0086               	movwf	6
  6833     0453  0187               	clrf	7
  6834     0454  0801               	movf	1,w
  6835     0455  00C9               	movwf	_eusartRxLastError	;volatile
  6836                           
  6837                           ;D:\yiming\00work\FR752.X\mcc_generated_files\eusart.c: 161:     readValue = eusartRxBuf
      +                          fer[eusartRxTail++];
  6838     0456  087B               	movf	_eusartRxTail,w
  6839     0457  3E28               	addlw	(low (_eusartRxBuffer| 0))& (0+255)
  6840     0458  0086               	movwf	6
  6841     0459  0187               	clrf	7
  6842     045A  0801               	movf	1,w
  6843     045B  00F2               	movwf	EUSART_Read@readValue
  6844     045C                     l2019:
  6845     045C  3001               	movlw	1
  6846     045D  00F1               	movwf	??_EUSART_Read
  6847     045E  0871               	movf	??_EUSART_Read,w
  6848     045F  07FB               	addwf	_eusartRxTail,f	;volatile
  6849     0460                     l2021:
  6850                           
  6851                           ;D:\yiming\00work\FR752.X\mcc_generated_files\eusart.c: 162:     if(sizeof(eusartRxBuffe
      +                          r) <= eusartRxTail)
  6852     0460  3008               	movlw	8
  6853     0461  027B               	subwf	_eusartRxTail,w	;volatile
  6854     0462  1C03               	skipc
  6855     0463  2C65               	goto	u1091
  6856     0464  2C66               	goto	u1090
  6857     0465                     u1091:
  6858     0465  2C67               	goto	l2025
  6859     0466                     u1090:
  6860     0466                     l2023:
  6861                           
  6862                           ;D:\yiming\00work\FR752.X\mcc_generated_files\eusart.c: 163:     {;D:\yiming\00work\FR75
      +                          2.X\mcc_generated_files\eusart.c: 164:         eusartRxTail = 0;
  6863     0466  01FB               	clrf	_eusartRxTail	;volatile
  6864     0467                     l2025:
  6865                           
  6866                           ;D:\yiming\00work\FR752.X\mcc_generated_files\eusart.c: 166:     PIE1bits.RCIE = 0;
  6867     0467  0021               	movlb	1	; select bank1
  6868     0468  1291               	bcf	17,5	;volatile
  6869     0469                     l2027:
  6870                           
  6871                           ;D:\yiming\00work\FR752.X\mcc_generated_files\eusart.c: 167:     eusartRxCount--;
  6872     0469  3001               	movlw	1
  6873     046A  0020               	movlb	0	; select bank0
  6874     046B  02CA               	subwf	_eusartRxCount,f	;volatile
  6875     046C                     l2029:
  6876                           
  6877                           ;D:\yiming\00work\FR752.X\mcc_generated_files\eusart.c: 168:     PIE1bits.RCIE = 1;
  6878     046C  0021               	movlb	1	; select bank1
  6879     046D  1691               	bsf	17,5	;volatile
  6880     046E                     l2031:
  6881                           
  6882                           ;D:\yiming\00work\FR752.X\mcc_generated_files\eusart.c: 170:     return readValue;
  6883     046E  0872               	movf	EUSART_Read@readValue,w
  6884     046F                     l382:
  6885     046F  0008               	return
  6886     0470                     __end_of_EUSART_Read:
  6887                           
  6888                           	psect	text45
  6889     0628                     __ptext45:	
  6890 ;; *************** function _EUSART_is_rx_ready *****************
  6891 ;; Defined at:
  6892 ;;		line 137 in file "D:\yiming\00work\FR752.X\mcc_generated_files\eusart.c"
  6893 ;; Parameters:    Size  Location     Type
  6894 ;;		None
  6895 ;; Auto vars:     Size  Location     Type
  6896 ;;		None
  6897 ;; Return value:  Size  Location     Type
  6898 ;;                  1    wreg      _Bool 
  6899 ;; Registers used:
  6900 ;;		wreg, status,2, status,0
  6901 ;; Tracked objects:
  6902 ;;		On entry : 0/0
  6903 ;;		On exit  : 0/0
  6904 ;;		Unchanged: 0/0
  6905 ;; Data sizes:     COMMON   BANK0   BANK1   BANK2   BANK3   BANK4   BANK5   BANK6
  6906 ;;      Params:         0       0       0       0       0       0       0       0
  6907 ;;      Locals:         0       0       0       0       0       0       0       0
  6908 ;;      Temps:          0       0       0       0       0       0       0       0
  6909 ;;      Totals:         0       0       0       0       0       0       0       0
  6910 ;;Total ram usage:        0 bytes
  6911 ;; Hardware stack levels used: 1
  6912 ;; Hardware stack levels required when called: 4
  6913 ;; This function calls:
  6914 ;;		Nothing
  6915 ;; This function is called by:
  6916 ;;		_LIN_handler
  6917 ;; This function uses a non-reentrant model
  6918 ;;
  6919                           
  6920     0628                     _EUSART_is_rx_ready:	
  6921                           ;psect for function _EUSART_is_rx_ready
  6922                           
  6923     0628                     l2227:	
  6924                           ;incstack = 0
  6925                           ; Regs used in _EUSART_is_rx_ready: [wreg+status,2+status,0]
  6926                           
  6927                           
  6928                           ;D:\yiming\00work\FR752.X\mcc_generated_files\eusart.c: 139:     return (eusartRxCount ?
      +                           1 : 0);
  6929     0628  0020               	movlb	0	; select bank0
  6930     0629  084A               	movf	_eusartRxCount,w	;volatile
  6931     062A  1D03               	btfss	3,2
  6932     062B  2E2D               	goto	u1601
  6933     062C  2E2F               	goto	u1600
  6934     062D                     u1601:
  6935     062D  3001               	movlw	1
  6936     062E  2E30               	goto	u1610
  6937     062F                     u1600:
  6938     062F  3000               	movlw	0
  6939     0630                     u1610:
  6940     0630                     l369:
  6941     0630  0008               	return
  6942     0631                     __end_of_EUSART_is_rx_ready:
  6943                           
  6944                           	psect	intentry
  6945     0004                     __pintentry:	
  6946 ;; *************** function _INTERRUPT_InterruptManager *****************
  6947 ;; Defined at:
  6948 ;;		line 52 in file "D:\yiming\00work\FR752.X\mcc_generated_files\interrupt_manager.c"
  6949 ;; Parameters:    Size  Location     Type
  6950 ;;		None
  6951 ;; Auto vars:     Size  Location     Type
  6952 ;;		None
  6953 ;; Return value:  Size  Location     Type
  6954 ;;                  1    wreg      void 
  6955 ;; Registers used:
  6956 ;;		wreg, fsr1l, fsr1h, status,2, status,0, pclath, cstack
  6957 ;; Tracked objects:
  6958 ;;		On entry : 0/0
  6959 ;;		On exit  : 0/0
  6960 ;;		Unchanged: 0/0
  6961 ;; Data sizes:     COMMON   BANK0   BANK1   BANK2   BANK3   BANK4   BANK5   BANK6
  6962 ;;      Params:         0       0       0       0       0       0       0       0
  6963 ;;      Locals:         0       0       0       0       0       0       0       0
  6964 ;;      Temps:          0       0       0       0       0       0       0       0
  6965 ;;      Totals:         0       0       0       0       0       0       0       0
  6966 ;;Total ram usage:        0 bytes
  6967 ;; Hardware stack levels used: 1
  6968 ;; Hardware stack levels required when called: 3
  6969 ;; This function calls:
  6970 ;;		NULL
  6971 ;;		_EUSART_Receive_ISR
  6972 ;;		_EUSART_Transmit_ISR
  6973 ;;		_TMR0_ISR
  6974 ;; This function is called by:
  6975 ;;		Interrupt level 1
  6976 ;; This function uses a non-reentrant model
  6977 ;;
  6978                           
  6979     0004                     _INTERRUPT_InterruptManager:
  6980                           
  6981                           ;incstack = 0
  6982     0004  147E               	bsf	int$flags,0	;set compiler interrupt flag (level 1)
  6983                           
  6984                           ; Regs used in _INTERRUPT_InterruptManager: [wreg+fsr1l+fsr1h+status,2+status,0+pclath+c
      +                          stack]
  6985     0005  3180               	pagesel	$
  6986     0006                     i1l2469:
  6987                           
  6988                           ;D:\yiming\00work\FR752.X\mcc_generated_files\interrupt_manager.c: 55:     if(INTCONbits
      +                          .TMR0IE == 1 && INTCONbits.TMR0IF == 1)
  6989     0006  1E8B               	btfss	11,5	;volatile
  6990     0007  2809               	goto	u188_21
  6991     0008  280A               	goto	u188_20
  6992     0009                     u188_21:
  6993     0009  2812               	goto	i1l453
  6994     000A                     u188_20:
  6995     000A                     i1l2471:
  6996     000A  1D0B               	btfss	11,2	;volatile
  6997     000B  280D               	goto	u189_21
  6998     000C  280E               	goto	u189_20
  6999     000D                     u189_21:
  7000     000D  2812               	goto	i1l453
  7001     000E                     u189_20:
  7002     000E                     i1l2473:
  7003                           
  7004                           ;D:\yiming\00work\FR752.X\mcc_generated_files\interrupt_manager.c: 56:     {;D:\yiming\0
      +                          0work\FR752.X\mcc_generated_files\interrupt_manager.c: 57:         TMR0_ISR();
  7005     000E  3185  25CC  3180   	fcall	_TMR0_ISR
  7006                           
  7007                           ;D:\yiming\00work\FR752.X\mcc_generated_files\interrupt_manager.c: 58:     }
  7008     0011  2836               	goto	i1l461
  7009     0012                     i1l453:	
  7010                           ;D:\yiming\00work\FR752.X\mcc_generated_files\interrupt_manager.c: 59:     else if(INTCO
      +                          Nbits.PEIE == 1)
  7011                           
  7012     0012  1F0B               	btfss	11,6	;volatile
  7013     0013  2815               	goto	u190_21
  7014     0014  2816               	goto	u190_20
  7015     0015                     u190_21:
  7016     0015  2836               	goto	i1l461
  7017     0016                     u190_20:
  7018     0016                     i1l2475:
  7019                           
  7020                           ;D:\yiming\00work\FR752.X\mcc_generated_files\interrupt_manager.c: 60:     {;D:\yiming\0
      +                          0work\FR752.X\mcc_generated_files\interrupt_manager.c: 61:         if(PIE1bits.TXIE == 1
      +                           && PIR1bits.TXIF == 1)
  7021     0016  0021               	movlb	1	; select bank1
  7022     0017  1E11               	btfss	17,4	;volatile
  7023     0018  281A               	goto	u191_21
  7024     0019  281B               	goto	u191_20
  7025     001A                     u191_21:
  7026     001A  2826               	goto	i1l456
  7027     001B                     u191_20:
  7028     001B                     i1l2477:
  7029     001B  0020               	movlb	0	; select bank0
  7030     001C  1E11               	btfss	17,4	;volatile
  7031     001D  281F               	goto	u192_21
  7032     001E  2820               	goto	u192_20
  7033     001F                     u192_21:
  7034     001F  2826               	goto	i1l456
  7035     0020                     u192_20:
  7036     0020                     i1l2479:
  7037                           
  7038                           ;D:\yiming\00work\FR752.X\mcc_generated_files\interrupt_manager.c: 62:         {;D:\yimi
      +                          ng\00work\FR752.X\mcc_generated_files\interrupt_manager.c: 63:             EUSART_TxDefa
      +                          ultInterruptHandler();
  7039     0020  0843               	movf	_EUSART_TxDefaultInterruptHandler+1,w
  7040     0021  008A               	movwf	10
  7041     0022  0842               	movf	_EUSART_TxDefaultInterruptHandler,w
  7042     0023  000A               	callw
  7043     0024  3180               	pagesel	$
  7044                           
  7045                           ;D:\yiming\00work\FR752.X\mcc_generated_files\interrupt_manager.c: 64:         }
  7046     0025  2836               	goto	i1l461
  7047     0026                     i1l456:	
  7048                           ;D:\yiming\00work\FR752.X\mcc_generated_files\interrupt_manager.c: 65:         else if(P
      +                          IE1bits.RCIE == 1 && PIR1bits.RCIF == 1)
  7049                           
  7050     0026  0021               	movlb	1	; select bank1
  7051     0027  1E91               	btfss	17,5	;volatile
  7052     0028  282A               	goto	u193_21
  7053     0029  282B               	goto	u193_20
  7054     002A                     u193_21:
  7055     002A  2836               	goto	i1l460
  7056     002B                     u193_20:
  7057     002B                     i1l2481:
  7058     002B  0020               	movlb	0	; select bank0
  7059     002C  1E91               	btfss	17,5	;volatile
  7060     002D  282F               	goto	u194_21
  7061     002E  2830               	goto	u194_20
  7062     002F                     u194_21:
  7063     002F  2836               	goto	i1l460
  7064     0030                     u194_20:
  7065     0030                     i1l2483:
  7066                           
  7067                           ;D:\yiming\00work\FR752.X\mcc_generated_files\interrupt_manager.c: 66:         {;D:\yimi
      +                          ng\00work\FR752.X\mcc_generated_files\interrupt_manager.c: 67:             EUSART_RxDefa
      +                          ultInterruptHandler();
  7068     0030  0841               	movf	_EUSART_RxDefaultInterruptHandler+1,w
  7069     0031  008A               	movwf	10
  7070     0032  0840               	movf	_EUSART_RxDefaultInterruptHandler,w
  7071     0033  000A               	callw
  7072     0034  3180               	pagesel	$
  7073                           
  7074                           ;D:\yiming\00work\FR752.X\mcc_generated_files\interrupt_manager.c: 68:         }
  7075     0035  2836               	goto	i1l461
  7076     0036                     i1l460:	
  7077                           ;D:\yiming\00work\FR752.X\mcc_generated_files\interrupt_manager.c: 75:     {;D:\yiming\0
      +                          0work\FR752.X\mcc_generated_files\interrupt_manager.c: 77:     }
  7078                           
  7079     0036                     i1l461:
  7080     0036  107E               	bcf	int$flags,0	;clear compiler interrupt flag (level 1)
  7081     0037  0009               	retfie
  7082     0038                     __end_of_INTERRUPT_InterruptManager:
  7083                           
  7084                           	psect	text47
  7085     05CC                     __ptext47:	
  7086 ;; *************** function _TMR0_ISR *****************
  7087 ;; Defined at:
  7088 ;;		line 108 in file "D:\yiming\00work\FR752.X\mcc_generated_files\tmr0.c"
  7089 ;; Parameters:    Size  Location     Type
  7090 ;;		None
  7091 ;; Auto vars:     Size  Location     Type
  7092 ;;		None
  7093 ;; Return value:  Size  Location     Type
  7094 ;;                  1    wreg      void 
  7095 ;; Registers used:
  7096 ;;		wreg, status,2, status,0, pclath, cstack
  7097 ;; Tracked objects:
  7098 ;;		On entry : 0/0
  7099 ;;		On exit  : 0/0
  7100 ;;		Unchanged: 0/0
  7101 ;; Data sizes:     COMMON   BANK0   BANK1   BANK2   BANK3   BANK4   BANK5   BANK6
  7102 ;;      Params:         0       0       0       0       0       0       0       0
  7103 ;;      Locals:         0       0       0       0       0       0       0       0
  7104 ;;      Temps:          0       0       0       0       0       0       0       0
  7105 ;;      Totals:         0       0       0       0       0       0       0       0
  7106 ;;Total ram usage:        0 bytes
  7107 ;; Hardware stack levels used: 1
  7108 ;; Hardware stack levels required when called: 1
  7109 ;; This function calls:
  7110 ;;		NULL
  7111 ;;		_LIN_timerHandler
  7112 ;;		_TMR0_DefaultInterruptHandler
  7113 ;; This function is called by:
  7114 ;;		_INTERRUPT_InterruptManager
  7115 ;; This function uses a non-reentrant model
  7116 ;;
  7117                           
  7118     05CC                     _TMR0_ISR:	
  7119                           ;psect for function _TMR0_ISR
  7120                           
  7121     05CC                     i1l2453:	
  7122                           ;incstack = 0
  7123                           ; Regs used in _TMR0_ISR: [wreg+status,2+status,0+pclath+cstack]
  7124                           
  7125                           
  7126                           ;D:\yiming\00work\FR752.X\mcc_generated_files\tmr0.c: 112:     INTCONbits.TMR0IF = 0;
  7127     05CC  110B               	bcf	11,2	;volatile
  7128     05CD                     i1l2455:
  7129                           
  7130                           ;D:\yiming\00work\FR752.X\mcc_generated_files\tmr0.c: 114:     TMR0 = timer0ReloadVal;
  7131     05CD  0020               	movlb	0	; select bank0
  7132     05CE  0848               	movf	_timer0ReloadVal,w	;volatile
  7133     05CF  0095               	movwf	21	;volatile
  7134     05D0                     i1l2457:
  7135                           
  7136                           ;D:\yiming\00work\FR752.X\mcc_generated_files\tmr0.c: 116:     if(TMR0_InterruptHandler)
  7137     05D0  0838               	movf	_TMR0_InterruptHandler,w
  7138     05D1  0439               	iorwf	_TMR0_InterruptHandler+1,w
  7139     05D2  1903               	btfsc	3,2
  7140     05D3  2DD5               	goto	u187_21
  7141     05D4  2DD6               	goto	u187_20
  7142     05D5                     u187_21:
  7143     05D5  2DDB               	goto	i1l567
  7144     05D6                     u187_20:
  7145     05D6                     i1l2459:
  7146                           
  7147                           ;D:\yiming\00work\FR752.X\mcc_generated_files\tmr0.c: 117:     {;D:\yiming\00work\FR752.
      +                          X\mcc_generated_files\tmr0.c: 118:         TMR0_InterruptHandler();
  7148     05D6  0839               	movf	_TMR0_InterruptHandler+1,w
  7149     05D7  008A               	movwf	10
  7150     05D8  0838               	movf	_TMR0_InterruptHandler,w
  7151     05D9  000A               	callw
  7152     05DA  3185               	pagesel	$
  7153     05DB                     i1l567:
  7154     05DB  0008               	return
  7155     05DC                     __end_of_TMR0_ISR:
  7156                           
  7157                           	psect	text48
  7158     05DC                     __ptext48:	
  7159 ;; *************** function _LIN_timerHandler *****************
  7160 ;; Defined at:
  7161 ;;		line 292 in file "D:\yiming\00work\FR752.X\mcc_generated_files\LINDrivers\lin_slave.c"
  7162 ;; Parameters:    Size  Location     Type
  7163 ;;		None
  7164 ;; Auto vars:     Size  Location     Type
  7165 ;;		None
  7166 ;; Return value:  Size  Location     Type
  7167 ;;                  1    wreg      void 
  7168 ;; Registers used:
  7169 ;;		wreg, status,2, status,0
  7170 ;; Tracked objects:
  7171 ;;		On entry : 0/0
  7172 ;;		On exit  : 0/0
  7173 ;;		Unchanged: 0/0
  7174 ;; Data sizes:     COMMON   BANK0   BANK1   BANK2   BANK3   BANK4   BANK5   BANK6
  7175 ;;      Params:         0       0       0       0       0       0       0       0
  7176 ;;      Locals:         0       0       0       0       0       0       0       0
  7177 ;;      Temps:          1       0       0       0       0       0       0       0
  7178 ;;      Totals:         1       0       0       0       0       0       0       0
  7179 ;;Total ram usage:        1 bytes
  7180 ;; Hardware stack levels used: 1
  7181 ;; This function calls:
  7182 ;;		Nothing
  7183 ;; This function is called by:
  7184 ;;		_LIN_setTimerHandler
  7185 ;;		_TMR0_ISR
  7186 ;; This function uses a non-reentrant model
  7187 ;;
  7188                           
  7189     05DC                     _LIN_timerHandler:	
  7190                           ;psect for function _LIN_timerHandler
  7191                           
  7192     05DC                     i1l2269:	
  7193                           ;incstack = 0
  7194                           ; Regs used in _LIN_timerHandler: [wreg+status,2+status,0]
  7195                           
  7196                           
  7197                           ;D:\yiming\00work\FR752.X\mcc_generated_files\LINDrivers\lin_slave.c: 295:   if (++Count
      +                          CallBack >= LIN_timeout) {
  7198     05DC  3001               	movlw	1
  7199     05DD  00F0               	movwf	??_LIN_timerHandler
  7200     05DE  0870               	movf	??_LIN_timerHandler,w
  7201     05DF  0020               	movlb	0	; select bank0
  7202     05E0  07D0               	addwf	_CountCallBack,f	;volatile
  7203     05E1  086E               	movf	_LIN_timeout,w
  7204     05E2  0250               	subwf	_CountCallBack,w	;volatile
  7205     05E3  1C03               	skipc
  7206     05E4  2DE6               	goto	u166_21
  7207     05E5  2DE7               	goto	u166_20
  7208     05E6                     u166_21:
  7209     05E6  2DE9               	goto	i1l252
  7210     05E7                     u166_20:
  7211     05E7                     i1l2271:
  7212                           
  7213                           ;D:\yiming\00work\FR752.X\mcc_generated_files\LINDrivers\lin_slave.c: 298:     CountCall
      +                          Back = 0;
  7214     05E7  01D0               	clrf	_CountCallBack	;volatile
  7215                           
  7216                           ;D:\yiming\00work\FR752.X\mcc_generated_files\LINDrivers\lin_slave.c: 299:     LIN_timer
      +                          Running = 0;
  7217     05E8  01D1               	clrf	_LIN_timerRunning
  7218     05E9                     i1l252:
  7219     05E9  0008               	return
  7220     05EA                     __end_of_LIN_timerHandler:
  7221                           
  7222                           	psect	text49
  7223     06B7                     __ptext49:	
  7224 ;; *************** function _TMR0_DefaultInterruptHandler *****************
  7225 ;; Defined at:
  7226 ;;		line 129 in file "D:\yiming\00work\FR752.X\mcc_generated_files\tmr0.c"
  7227 ;; Parameters:    Size  Location     Type
  7228 ;;		None
  7229 ;; Auto vars:     Size  Location     Type
  7230 ;;		None
  7231 ;; Return value:  Size  Location     Type
  7232 ;;                  1    wreg      void 
  7233 ;; Registers used:
  7234 ;;		None
  7235 ;; Tracked objects:
  7236 ;;		On entry : 0/0
  7237 ;;		On exit  : 0/0
  7238 ;;		Unchanged: 0/0
  7239 ;; Data sizes:     COMMON   BANK0   BANK1   BANK2   BANK3   BANK4   BANK5   BANK6
  7240 ;;      Params:         0       0       0       0       0       0       0       0
  7241 ;;      Locals:         0       0       0       0       0       0       0       0
  7242 ;;      Temps:          0       0       0       0       0       0       0       0
  7243 ;;      Totals:         0       0       0       0       0       0       0       0
  7244 ;;Total ram usage:        0 bytes
  7245 ;; Hardware stack levels used: 1
  7246 ;; This function calls:
  7247 ;;		Nothing
  7248 ;; This function is called by:
  7249 ;;		_TMR0_Initialize
  7250 ;;		_TMR0_ISR
  7251 ;; This function uses a non-reentrant model
  7252 ;;
  7253                           
  7254     06B7                     _TMR0_DefaultInterruptHandler:	
  7255                           ;psect for function _TMR0_DefaultInterruptHandler
  7256                           
  7257     06B7                     i1l573:	
  7258                           ;incstack = 0
  7259                           ; Regs used in _TMR0_DefaultInterruptHandler: []
  7260                           
  7261     06B7  0008               	return
  7262     06B8                     __end_of_TMR0_DefaultInterruptHandler:
  7263                           
  7264                           	psect	text50
  7265     04BA                     __ptext50:	
  7266 ;; *************** function _EUSART_Transmit_ISR *****************
  7267 ;; Defined at:
  7268 ;;		line 197 in file "D:\yiming\00work\FR752.X\mcc_generated_files\eusart.c"
  7269 ;; Parameters:    Size  Location     Type
  7270 ;;		None
  7271 ;; Auto vars:     Size  Location     Type
  7272 ;;		None
  7273 ;; Return value:  Size  Location     Type
  7274 ;;                  1    wreg      void 
  7275 ;; Registers used:
  7276 ;;		wreg, fsr1l, fsr1h, status,2, status,0
  7277 ;; Tracked objects:
  7278 ;;		On entry : 0/0
  7279 ;;		On exit  : 0/0
  7280 ;;		Unchanged: 0/0
  7281 ;; Data sizes:     COMMON   BANK0   BANK1   BANK2   BANK3   BANK4   BANK5   BANK6
  7282 ;;      Params:         0       0       0       0       0       0       0       0
  7283 ;;      Locals:         0       0       0       0       0       0       0       0
  7284 ;;      Temps:          1       0       0       0       0       0       0       0
  7285 ;;      Totals:         1       0       0       0       0       0       0       0
  7286 ;;Total ram usage:        1 bytes
  7287 ;; Hardware stack levels used: 1
  7288 ;; This function calls:
  7289 ;;		Nothing
  7290 ;; This function is called by:
  7291 ;;		_EUSART_Initialize
  7292 ;;		_INTERRUPT_InterruptManager
  7293 ;; This function uses a non-reentrant model
  7294 ;;
  7295                           
  7296     04BA                     _EUSART_Transmit_ISR:	
  7297                           ;psect for function _EUSART_Transmit_ISR
  7298                           
  7299     04BA                     i1l2421:	
  7300                           ;incstack = 0
  7301                           ; Regs used in _EUSART_Transmit_ISR: [wreg+fsr1l+fsr1h+status,2+status,0]
  7302                           
  7303                           
  7304                           ;D:\yiming\00work\FR752.X\mcc_generated_files\eusart.c: 201:     if(sizeof(eusartTxBuffe
      +                          r) > eusartTxBufferRemaining)
  7305     04BA  3008               	movlw	8
  7306     04BB  0020               	movlb	0	; select bank0
  7307     04BC  024B               	subwf	_eusartTxBufferRemaining,w	;volatile
  7308     04BD  1803               	skipnc
  7309     04BE  2CC0               	goto	u182_21
  7310     04BF  2CC1               	goto	u182_20
  7311     04C0                     u182_21:
  7312     04C0  2CD9               	goto	i1l394
  7313     04C1                     u182_20:
  7314     04C1                     i1l2423:
  7315                           
  7316                           ;D:\yiming\00work\FR752.X\mcc_generated_files\eusart.c: 202:     {;D:\yiming\00work\FR75
      +                          2.X\mcc_generated_files\eusart.c: 203:         TXREG = eusartTxBuffer[eusartTxTail++];
  7317     04C1  084C               	movf	_eusartTxTail,w
  7318     04C2  3E30               	addlw	(low (_eusartTxBuffer| 0))& (0+255)
  7319     04C3  0086               	movwf	6
  7320     04C4  0187               	clrf	7
  7321     04C5  0801               	movf	1,w
  7322     04C6  0023               	movlb	3	; select bank3
  7323     04C7  009A               	movwf	26	;volatile
  7324     04C8                     i1l2425:
  7325     04C8  3001               	movlw	1
  7326     04C9  00F0               	movwf	??_EUSART_Transmit_ISR
  7327     04CA  0870               	movf	??_EUSART_Transmit_ISR,w
  7328     04CB  0020               	movlb	0	; select bank0
  7329     04CC  07CC               	addwf	_eusartTxTail,f	;volatile
  7330     04CD                     i1l2427:
  7331                           
  7332                           ;D:\yiming\00work\FR752.X\mcc_generated_files\eusart.c: 204:         if(sizeof(eusartTxB
      +                          uffer) <= eusartTxTail)
  7333     04CD  3008               	movlw	8
  7334     04CE  024C               	subwf	_eusartTxTail,w	;volatile
  7335     04CF  1C03               	skipc
  7336     04D0  2CD2               	goto	u183_21
  7337     04D1  2CD3               	goto	u183_20
  7338     04D2                     u183_21:
  7339     04D2  2CD4               	goto	i1l2431
  7340     04D3                     u183_20:
  7341     04D3                     i1l2429:
  7342                           
  7343                           ;D:\yiming\00work\FR752.X\mcc_generated_files\eusart.c: 205:         {;D:\yiming\00work\
      +                          FR752.X\mcc_generated_files\eusart.c: 206:             eusartTxTail = 0;
  7344     04D3  01CC               	clrf	_eusartTxTail	;volatile
  7345     04D4                     i1l2431:
  7346                           
  7347                           ;D:\yiming\00work\FR752.X\mcc_generated_files\eusart.c: 208:         eusartTxBufferRemai
      +                          ning++;
  7348     04D4  3001               	movlw	1
  7349     04D5  00F0               	movwf	??_EUSART_Transmit_ISR
  7350     04D6  0870               	movf	??_EUSART_Transmit_ISR,w
  7351     04D7  07CB               	addwf	_eusartTxBufferRemaining,f	;volatile
  7352                           
  7353                           ;D:\yiming\00work\FR752.X\mcc_generated_files\eusart.c: 209:     }
  7354     04D8  2CDB               	goto	i1l397
  7355     04D9                     i1l394:	
  7356                           ;D:\yiming\00work\FR752.X\mcc_generated_files\eusart.c: 210:     else
  7357                           
  7358                           
  7359                           ;D:\yiming\00work\FR752.X\mcc_generated_files\eusart.c: 211:     {;D:\yiming\00work\FR75
      +                          2.X\mcc_generated_files\eusart.c: 212:         PIE1bits.TXIE = 0;
  7360     04D9  0021               	movlb	1	; select bank1
  7361     04DA  1211               	bcf	17,4	;volatile
  7362     04DB                     i1l397:
  7363     04DB  0008               	return
  7364     04DC                     __end_of_EUSART_Transmit_ISR:
  7365                           
  7366                           	psect	text51
  7367     03B6                     __ptext51:	
  7368 ;; *************** function _EUSART_Receive_ISR *****************
  7369 ;; Defined at:
  7370 ;;		line 216 in file "D:\yiming\00work\FR752.X\mcc_generated_files\eusart.c"
  7371 ;; Parameters:    Size  Location     Type
  7372 ;;		None
  7373 ;; Auto vars:     Size  Location     Type
  7374 ;;		None
  7375 ;; Return value:  Size  Location     Type
  7376 ;;                  1    wreg      void 
  7377 ;; Registers used:
  7378 ;;		wreg, fsr1l, fsr1h, status,2, status,0, pclath, cstack
  7379 ;; Tracked objects:
  7380 ;;		On entry : 0/0
  7381 ;;		On exit  : 0/0
  7382 ;;		Unchanged: 0/0
  7383 ;; Data sizes:     COMMON   BANK0   BANK1   BANK2   BANK3   BANK4   BANK5   BANK6
  7384 ;;      Params:         0       0       0       0       0       0       0       0
  7385 ;;      Locals:         0       0       0       0       0       0       0       0
  7386 ;;      Temps:          0       0       0       0       0       0       0       0
  7387 ;;      Totals:         0       0       0       0       0       0       0       0
  7388 ;;Total ram usage:        0 bytes
  7389 ;; Hardware stack levels used: 1
  7390 ;; Hardware stack levels required when called: 2
  7391 ;; This function calls:
  7392 ;;		NULL
  7393 ;;		_EUSART_DefaultErrorHandler
  7394 ;;		_EUSART_DefaultFramingErrorHandler
  7395 ;;		_EUSART_DefaultOverrunErrorHandler
  7396 ;;		_EUSART_RxDataHandler
  7397 ;; This function is called by:
  7398 ;;		_EUSART_Initialize
  7399 ;;		_INTERRUPT_InterruptManager
  7400 ;; This function uses a non-reentrant model
  7401 ;;
  7402                           
  7403     03B6                     _EUSART_Receive_ISR:	
  7404                           ;psect for function _EUSART_Receive_ISR
  7405                           
  7406     03B6                     i1l2433:	
  7407                           ;incstack = 0
  7408                           ; Regs used in _EUSART_Receive_ISR: [wreg+fsr1l+fsr1h+status,2+status,0+pclath+cstack]
  7409                           
  7410                           
  7411                           ;D:\yiming\00work\FR752.X\mcc_generated_files\eusart.c: 219:     eusartRxStatusBuffer[eu
      +                          sartRxHead].status = 0;
  7412     03B6  087C               	movf	_eusartRxHead,w	;volatile
  7413     03B7  3E20               	addlw	(low (_eusartRxStatusBuffer| 0))& (0+255)
  7414     03B8  0086               	movwf	6
  7415     03B9  0187               	clrf	7
  7416     03BA  0181               	clrf	1
  7417     03BB                     i1l2435:
  7418                           
  7419                           ;D:\yiming\00work\FR752.X\mcc_generated_files\eusart.c: 221:     if(RCSTAbits.FERR){
  7420     03BB  0023               	movlb	3	; select bank3
  7421     03BC  1D1D               	btfss	29,2	;volatile
  7422     03BD  2BBF               	goto	u184_21
  7423     03BE  2BC0               	goto	u184_20
  7424     03BF                     u184_21:
  7425     03BF  2BCB               	goto	i1l2441
  7426     03C0                     u184_20:
  7427     03C0                     i1l2437:
  7428                           
  7429                           ;D:\yiming\00work\FR752.X\mcc_generated_files\eusart.c: 222:         eusartRxStatusBuffe
      +                          r[eusartRxHead].ferr = 1;
  7430     03C0  087C               	movf	_eusartRxHead,w	;volatile
  7431     03C1  3E20               	addlw	(low (_eusartRxStatusBuffer| 0))& (0+255)
  7432     03C2  0086               	movwf	6
  7433     03C3  0187               	clrf	7
  7434     03C4  1481               	bsf	1,1
  7435     03C5                     i1l2439:
  7436                           
  7437                           ;D:\yiming\00work\FR752.X\mcc_generated_files\eusart.c: 223:         EUSART_FramingError
      +                          Handler();
  7438     03C5  0020               	movlb	0	; select bank0
  7439     03C6  083F               	movf	_EUSART_FramingErrorHandler+1,w
  7440     03C7  008A               	movwf	10
  7441     03C8  083E               	movf	_EUSART_FramingErrorHandler,w
  7442     03C9  000A               	callw
  7443     03CA  3183               	pagesel	$
  7444     03CB                     i1l2441:
  7445                           
  7446                           ;D:\yiming\00work\FR752.X\mcc_generated_files\eusart.c: 226:     if(RCSTAbits.OERR){
  7447     03CB  0023               	movlb	3	; select bank3
  7448     03CC  1C9D               	btfss	29,1	;volatile
  7449     03CD  2BCF               	goto	u185_21
  7450     03CE  2BD0               	goto	u185_20
  7451     03CF                     u185_21:
  7452     03CF  2BDB               	goto	i1l2447
  7453     03D0                     u185_20:
  7454     03D0                     i1l2443:
  7455                           
  7456                           ;D:\yiming\00work\FR752.X\mcc_generated_files\eusart.c: 227:         eusartRxStatusBuffe
      +                          r[eusartRxHead].oerr = 1;
  7457     03D0  087C               	movf	_eusartRxHead,w	;volatile
  7458     03D1  3E20               	addlw	(low (_eusartRxStatusBuffer| 0))& (0+255)
  7459     03D2  0086               	movwf	6
  7460     03D3  0187               	clrf	7
  7461     03D4  1501               	bsf	1,2
  7462     03D5                     i1l2445:
  7463                           
  7464                           ;D:\yiming\00work\FR752.X\mcc_generated_files\eusart.c: 228:         EUSART_OverrunError
      +                          Handler();
  7465     03D5  0020               	movlb	0	; select bank0
  7466     03D6  083D               	movf	_EUSART_OverrunErrorHandler+1,w
  7467     03D7  008A               	movwf	10
  7468     03D8  083C               	movf	_EUSART_OverrunErrorHandler,w
  7469     03D9  000A               	callw
  7470     03DA  3183               	pagesel	$
  7471     03DB                     i1l2447:
  7472                           
  7473                           ;D:\yiming\00work\FR752.X\mcc_generated_files\eusart.c: 231:     if(eusartRxStatusBuffer
      +                          [eusartRxHead].status){
  7474     03DB  087C               	movf	_eusartRxHead,w	;volatile
  7475     03DC  3E20               	addlw	(low (_eusartRxStatusBuffer| 0))& (0+255)
  7476     03DD  0086               	movwf	6
  7477     03DE  0187               	clrf	7
  7478     03DF  0801               	movf	1,w
  7479     03E0  1903               	btfsc	3,2
  7480     03E1  2BE3               	goto	u186_21
  7481     03E2  2BE4               	goto	u186_20
  7482     03E3                     u186_21:
  7483     03E3  2BEB               	goto	i1l2451
  7484     03E4                     u186_20:
  7485     03E4                     i1l2449:
  7486                           
  7487                           ;D:\yiming\00work\FR752.X\mcc_generated_files\eusart.c: 232:         EUSART_ErrorHandler
      +                          ();
  7488     03E4  0020               	movlb	0	; select bank0
  7489     03E5  083B               	movf	_EUSART_ErrorHandler+1,w
  7490     03E6  008A               	movwf	10
  7491     03E7  083A               	movf	_EUSART_ErrorHandler,w
  7492     03E8  000A               	callw
  7493     03E9  3183               	pagesel	$
  7494                           
  7495                           ;D:\yiming\00work\FR752.X\mcc_generated_files\eusart.c: 233:     } else {
  7496     03EA  2BEE               	goto	i1l404
  7497     03EB                     i1l2451:
  7498                           
  7499                           ;D:\yiming\00work\FR752.X\mcc_generated_files\eusart.c: 234:         EUSART_RxDataHandle
      +                          r();
  7500     03EB  3185  2560  3183   	fcall	_EUSART_RxDataHandler
  7501     03EE                     i1l404:
  7502     03EE  0008               	return
  7503     03EF                     __end_of_EUSART_Receive_ISR:
  7504                           
  7505                           	psect	text52
  7506     06A5                     __ptext52:	
  7507 ;; *************** function _EUSART_DefaultOverrunErrorHandler *****************
  7508 ;; Defined at:
  7509 ;;		line 252 in file "D:\yiming\00work\FR752.X\mcc_generated_files\eusart.c"
  7510 ;; Parameters:    Size  Location     Type
  7511 ;;		None
  7512 ;; Auto vars:     Size  Location     Type
  7513 ;;		None
  7514 ;; Return value:  Size  Location     Type
  7515 ;;                  1    wreg      void 
  7516 ;; Registers used:
  7517 ;;		None
  7518 ;; Tracked objects:
  7519 ;;		On entry : 0/0
  7520 ;;		On exit  : 0/0
  7521 ;;		Unchanged: 0/0
  7522 ;; Data sizes:     COMMON   BANK0   BANK1   BANK2   BANK3   BANK4   BANK5   BANK6
  7523 ;;      Params:         0       0       0       0       0       0       0       0
  7524 ;;      Locals:         0       0       0       0       0       0       0       0
  7525 ;;      Temps:          0       0       0       0       0       0       0       0
  7526 ;;      Totals:         0       0       0       0       0       0       0       0
  7527 ;;Total ram usage:        0 bytes
  7528 ;; Hardware stack levels used: 1
  7529 ;; This function calls:
  7530 ;;		Nothing
  7531 ;; This function is called by:
  7532 ;;		_EUSART_Initialize
  7533 ;;		_EUSART_Receive_ISR
  7534 ;; This function uses a non-reentrant model
  7535 ;;
  7536                           
  7537     06A5                     _EUSART_DefaultOverrunErrorHandler:	
  7538                           ;psect for function _EUSART_DefaultOverrunErrorHandler
  7539                           
  7540     06A5                     i1l2305:	
  7541                           ;incstack = 0
  7542                           ; Regs used in _EUSART_DefaultOverrunErrorHandler: []
  7543                           
  7544                           
  7545                           ;D:\yiming\00work\FR752.X\mcc_generated_files\eusart.c: 255:     RCSTAbits.CREN = 0;
  7546     06A5  0023               	movlb	3	; select bank3
  7547     06A6  121D               	bcf	29,4	;volatile
  7548                           
  7549                           ;D:\yiming\00work\FR752.X\mcc_generated_files\eusart.c: 256:     RCSTAbits.CREN = 1;
  7550     06A7  161D               	bsf	29,4	;volatile
  7551     06A8                     i1l414:
  7552     06A8  0008               	return
  7553     06A9                     __end_of_EUSART_DefaultOverrunErrorHandler:
  7554                           
  7555                           	psect	text53
  7556     06B8                     __ptext53:	
  7557 ;; *************** function _EUSART_DefaultFramingErrorHandler *****************
  7558 ;; Defined at:
  7559 ;;		line 250 in file "D:\yiming\00work\FR752.X\mcc_generated_files\eusart.c"
  7560 ;; Parameters:    Size  Location     Type
  7561 ;;		None
  7562 ;; Auto vars:     Size  Location     Type
  7563 ;;		None
  7564 ;; Return value:  Size  Location     Type
  7565 ;;                  1    wreg      void 
  7566 ;; Registers used:
  7567 ;;		None
  7568 ;; Tracked objects:
  7569 ;;		On entry : 0/0
  7570 ;;		On exit  : 0/0
  7571 ;;		Unchanged: 0/0
  7572 ;; Data sizes:     COMMON   BANK0   BANK1   BANK2   BANK3   BANK4   BANK5   BANK6
  7573 ;;      Params:         0       0       0       0       0       0       0       0
  7574 ;;      Locals:         0       0       0       0       0       0       0       0
  7575 ;;      Temps:          0       0       0       0       0       0       0       0
  7576 ;;      Totals:         0       0       0       0       0       0       0       0
  7577 ;;Total ram usage:        0 bytes
  7578 ;; Hardware stack levels used: 1
  7579 ;; This function calls:
  7580 ;;		Nothing
  7581 ;; This function is called by:
  7582 ;;		_EUSART_Initialize
  7583 ;;		_EUSART_Receive_ISR
  7584 ;; This function uses a non-reentrant model
  7585 ;;
  7586                           
  7587     06B8                     _EUSART_DefaultFramingErrorHandler:	
  7588                           ;psect for function _EUSART_DefaultFramingErrorHandler
  7589                           
  7590     06B8                     i1l411:	
  7591                           ;incstack = 0
  7592                           ; Regs used in _EUSART_DefaultFramingErrorHandler: []
  7593                           
  7594     06B8  0008               	return
  7595     06B9                     __end_of_EUSART_DefaultFramingErrorHandler:
  7596                           
  7597                           	psect	text54
  7598     06A9                     __ptext54:	
  7599 ;; *************** function _EUSART_DefaultErrorHandler *****************
  7600 ;; Defined at:
  7601 ;;		line 260 in file "D:\yiming\00work\FR752.X\mcc_generated_files\eusart.c"
  7602 ;; Parameters:    Size  Location     Type
  7603 ;;		None
  7604 ;; Auto vars:     Size  Location     Type
  7605 ;;		None
  7606 ;; Return value:  Size  Location     Type
  7607 ;;                  1    wreg      void 
  7608 ;; Registers used:
  7609 ;;		wreg, fsr1l, fsr1h, status,2, status,0, pclath, cstack
  7610 ;; Tracked objects:
  7611 ;;		On entry : 0/0
  7612 ;;		On exit  : 0/0
  7613 ;;		Unchanged: 0/0
  7614 ;; Data sizes:     COMMON   BANK0   BANK1   BANK2   BANK3   BANK4   BANK5   BANK6
  7615 ;;      Params:         0       0       0       0       0       0       0       0
  7616 ;;      Locals:         0       0       0       0       0       0       0       0
  7617 ;;      Temps:          0       0       0       0       0       0       0       0
  7618 ;;      Totals:         0       0       0       0       0       0       0       0
  7619 ;;Total ram usage:        0 bytes
  7620 ;; Hardware stack levels used: 1
  7621 ;; Hardware stack levels required when called: 1
  7622 ;; This function calls:
  7623 ;;		_EUSART_RxDataHandler
  7624 ;; This function is called by:
  7625 ;;		_EUSART_Initialize
  7626 ;;		_EUSART_Receive_ISR
  7627 ;; This function uses a non-reentrant model
  7628 ;;
  7629                           
  7630     06A9                     _EUSART_DefaultErrorHandler:	
  7631                           ;psect for function _EUSART_DefaultErrorHandler
  7632                           
  7633     06A9                     i1l2307:	
  7634                           ;incstack = 0
  7635                           ; Regs used in _EUSART_DefaultErrorHandler: [wreg+fsr1l+fsr1h+status,2+status,0+pclath+c
      +                          stack]
  7636                           
  7637                           
  7638                           ;D:\yiming\00work\FR752.X\mcc_generated_files\eusart.c: 261:     EUSART_RxDataHandler();
  7639     06A9  3185  2560  3186   	fcall	_EUSART_RxDataHandler
  7640     06AC                     i1l417:
  7641     06AC  0008               	return
  7642     06AD                     __end_of_EUSART_DefaultErrorHandler:
  7643                           
  7644                           	psect	text55
  7645     0560                     __ptext55:	
  7646 ;; *************** function _EUSART_RxDataHandler *****************
  7647 ;; Defined at:
  7648 ;;		line 240 in file "D:\yiming\00work\FR752.X\mcc_generated_files\eusart.c"
  7649 ;; Parameters:    Size  Location     Type
  7650 ;;		None
  7651 ;; Auto vars:     Size  Location     Type
  7652 ;;		None
  7653 ;; Return value:  Size  Location     Type
  7654 ;;                  1    wreg      void 
  7655 ;; Registers used:
  7656 ;;		wreg, fsr1l, fsr1h, status,2, status,0
  7657 ;; Tracked objects:
  7658 ;;		On entry : 0/0
  7659 ;;		On exit  : 0/0
  7660 ;;		Unchanged: 0/0
  7661 ;; Data sizes:     COMMON   BANK0   BANK1   BANK2   BANK3   BANK4   BANK5   BANK6
  7662 ;;      Params:         0       0       0       0       0       0       0       0
  7663 ;;      Locals:         0       0       0       0       0       0       0       0
  7664 ;;      Temps:          1       0       0       0       0       0       0       0
  7665 ;;      Totals:         1       0       0       0       0       0       0       0
  7666 ;;Total ram usage:        1 bytes
  7667 ;; Hardware stack levels used: 1
  7668 ;; This function calls:
  7669 ;;		Nothing
  7670 ;; This function is called by:
  7671 ;;		_EUSART_Receive_ISR
  7672 ;;		_EUSART_DefaultErrorHandler
  7673 ;; This function uses a non-reentrant model
  7674 ;;
  7675                           
  7676     0560                     _EUSART_RxDataHandler:	
  7677                           ;psect for function _EUSART_RxDataHandler
  7678                           
  7679     0560                     i1l2107:	
  7680                           ;incstack = 0
  7681                           ; Regs used in _EUSART_RxDataHandler: [wreg+fsr1l+fsr1h+status,2+status,0]
  7682                           
  7683                           
  7684                           ;D:\yiming\00work\FR752.X\mcc_generated_files\eusart.c: 242:     eusartRxBuffer[eusartRx
      +                          Head++] = RCREG;
  7685     0560  087C               	movf	_eusartRxHead,w
  7686     0561  3E28               	addlw	(low (_eusartRxBuffer| 0))& (0+255)
  7687     0562  0086               	movwf	6
  7688     0563  0187               	clrf	7
  7689     0564  0023               	movlb	3	; select bank3
  7690     0565  0819               	movf	25,w	;volatile
  7691     0566  0081               	movwf	1
  7692     0567                     i1l2109:
  7693     0567  3001               	movlw	1
  7694     0568  00F0               	movwf	??_EUSART_RxDataHandler
  7695     0569  0870               	movf	??_EUSART_RxDataHandler,w
  7696     056A  07FC               	addwf	_eusartRxHead,f	;volatile
  7697     056B                     i1l2111:
  7698                           
  7699                           ;D:\yiming\00work\FR752.X\mcc_generated_files\eusart.c: 243:     if(sizeof(eusartRxBuffe
      +                          r) <= eusartRxHead)
  7700     056B  3008               	movlw	8
  7701     056C  027C               	subwf	_eusartRxHead,w	;volatile
  7702     056D  1C03               	skipc
  7703     056E  2D70               	goto	u139_21
  7704     056F  2D71               	goto	u139_20
  7705     0570                     u139_21:
  7706     0570  2D72               	goto	i1l2115
  7707     0571                     u139_20:
  7708     0571                     i1l2113:
  7709                           
  7710                           ;D:\yiming\00work\FR752.X\mcc_generated_files\eusart.c: 244:     {;D:\yiming\00work\FR75
      +                          2.X\mcc_generated_files\eusart.c: 245:         eusartRxHead = 0;
  7711     0571  01FC               	clrf	_eusartRxHead	;volatile
  7712     0572                     i1l2115:
  7713                           
  7714                           ;D:\yiming\00work\FR752.X\mcc_generated_files\eusart.c: 247:     eusartRxCount++;
  7715     0572  3001               	movlw	1
  7716     0573  00F0               	movwf	??_EUSART_RxDataHandler
  7717     0574  0870               	movf	??_EUSART_RxDataHandler,w
  7718     0575  0020               	movlb	0	; select bank0
  7719     0576  07CA               	addwf	_eusartRxCount,f	;volatile
  7720     0577                     i1l408:
  7721     0577  0008               	return
  7722     0578                     __end_of_EUSART_RxDataHandler:
  7723     007E                     btemp	set	126	;btemp
  7724     007E                     int$flags	set	126
  7725     007E                     wtemp0	set	126
  7726                           
  7727                           	psect	idloc
  7728                           
  7729                           ;Config register IDLOC0 @ 0x8000
  7730                           ;	unspecified, using default values
  7731     8000                     	org	32768
  7732     8000  3FFF               	dw	16383
  7733                           
  7734                           ;Config register IDLOC1 @ 0x8001
  7735                           ;	unspecified, using default values
  7736     8001                     	org	32769
  7737     8001  3FFF               	dw	16383
  7738                           
  7739                           ;Config register IDLOC2 @ 0x8002
  7740                           ;	unspecified, using default values
  7741     8002                     	org	32770
  7742     8002  3FFF               	dw	16383
  7743                           
  7744                           ;Config register IDLOC3 @ 0x8003
  7745                           ;	unspecified, using default values
  7746     8003                     	org	32771
  7747     8003  3FFF               	dw	16383
  7748                           
  7749                           	psect	config
  7750                           
  7751                           ;Config register CONFIG1 @ 0x8007
  7752                           ;	Oscillator Selection
  7753                           ;	FOSC = INTOSC, INTOSC oscillator: I/O function on CLKIN pin
  7754                           ;	Watchdog Timer Enable
  7755                           ;	WDTE = OFF, WDT disabled
  7756                           ;	Power-up Timer Enable
  7757                           ;	PWRTE = OFF, PWRT disabled
  7758                           ;	MCLR Pin Function Select
  7759                           ;	MCLRE = ON, MCLR/VPP pin function is MCLR
  7760                           ;	Flash Program Memory Code Protection
  7761                           ;	CP = OFF, Program memory code protection is disabled
  7762                           ;	Data Memory Code Protection
  7763                           ;	CPD = OFF, Data memory code protection is disabled
  7764                           ;	Brown-out Reset Enable
  7765                           ;	BOREN = ON, Brown-out Reset enabled
  7766                           ;	Clock Out Enable
  7767                           ;	CLKOUTEN = OFF, CLKOUT function is disabled. I/O or oscillator function on the CLKOUT 
      +                          pin
  7768                           ;	Internal/External Switchover
  7769                           ;	IESO = ON, Internal/External Switchover mode is enabled
  7770                           ;	Fail-Safe Clock Monitor Enable
  7771                           ;	FCMEN = ON, Fail-Safe Clock Monitor is enabled
  7772     8007                     	org	32775
  7773     8007  3FE4               	dw	16356
  7774                           
  7775                           ;Config register CONFIG2 @ 0x8008
  7776                           ;	Flash Memory Self-Write Protection
  7777                           ;	WRT = OFF, Write protection off
  7778                           ;	Voltage Regulator Capacitor Enable
  7779                           ;	VCAPEN = OFF, All VCAP pin functionality is disabled
  7780                           ;	PLL Enable
  7781                           ;	PLLEN = ON, 4x PLL enabled
  7782                           ;	Stack Overflow/Underflow Reset Enable
  7783                           ;	STVREN = ON, Stack Overflow or Underflow will cause a Reset
  7784                           ;	Brown-out Reset Voltage Selection
  7785                           ;	BORV = LO, Brown-out Reset Voltage (Vbor), low trip point selected.
  7786                           ;	Low-Voltage Programming Enable
  7787                           ;	LVP = OFF, High-voltage on MCLR/VPP must be used for programming
  7788     8008                     	org	32776
  7789     8008  1FFF               	dw	8191

Data Sizes:
    Strings     0
    Constant    4
    Data        1
    BSS         77
    Persistent  32
    Stack       0

Auto Spaces:
    Space          Size  Autos    Used
    COMMON           14     11      13
    BANK0            80     11      79
    BANK1            80      2      10
    BANK2            80      0       0
    BANK3            80      0       0
    BANK4            80      0       0
    BANK5            80      0       0
    BANK6            16      0       0

Pointer List with Targets:

    EUSART_ErrorHandler	PTR FTN()void  size(2) Largest target is 1
		 -> EUSART_DefaultErrorHandler(), NULL(), 

    EUSART_FramingErrorHandler	PTR FTN()void  size(2) Largest target is 1
		 -> EUSART_DefaultFramingErrorHandler(), NULL(), 

    EUSART_OverrunErrorHandler	PTR FTN()void  size(2) Largest target is 1
		 -> EUSART_DefaultOverrunErrorHandler(), NULL(), 

    EUSART_RxDefaultInterruptHandler	PTR FTN()void  size(2) Largest target is 1
		 -> EUSART_Receive_ISR(), NULL(), 

    EUSART_SetErrorHandler@interruptHandler	PTR FTN()void  size(2) Largest target is 1
		 -> EUSART_DefaultErrorHandler(), 

    EUSART_SetFramingErrorHandler@interruptHandler	PTR FTN()void  size(2) Largest target is 1
		 -> EUSART_DefaultFramingErrorHandler(), 

    EUSART_SetOverrunErrorHandler@interruptHandler	PTR FTN()void  size(2) Largest target is 1
		 -> EUSART_DefaultOverrunErrorHandler(), 

    EUSART_SetRxInterruptHandler@interruptHandler	PTR FTN()void  size(2) Largest target is 1
		 -> EUSART_Receive_ISR(), 

    EUSART_SetTxInterruptHandler@interruptHandler	PTR FTN()void  size(2) Largest target is 1
		 -> EUSART_Transmit_ISR(), 

    EUSART_TxDefaultInterruptHandler	PTR FTN()void  size(2) Largest target is 1
		 -> EUSART_Transmit_ISR(), NULL(), 

    LIN_getChecksum@data	PTR unsigned char  size(1) Largest target is 13
		 -> LIN_packet(BANK0[13]), 

    LIN_getFromTable@rxCommand	PTR const struct . size(2) Largest target is 5
		 -> scheduleTable(CODE[4]), NULL(NULL[0]), 

    LIN_getFromTable@rxCommand$data	PTR unsigned char  size(1) Largest target is 8
		 -> SIGNAL_Data(BANK1[8]), 

    LIN_getPacket@data	PTR unsigned char  size(1) Largest target is 8
		 -> processLIN@tempRxData(BANK0[8]), 

    LIN_init@command	const PTR const struct . size(2) Largest target is 5
		 -> scheduleTable(CODE[4]), 

    LIN_init@processData	PTR FTN()void  size(2) Largest target is 1
		 -> processLIN(), 

    LIN_processData	PTR FTN()void  size(2) Largest target is 1
		 -> processLIN(), NULL(), 

    LIN_queuePacket@tempSchedule	PTR const struct . size(2) Largest target is 5
		 -> scheduleTable(CODE[4]), NULL(NULL[0]), 

    LIN_queuePacket@tempSchedule$data	PTR unsigned char  size(1) Largest target is 8
		 -> SIGNAL_Data(BANK1[8]), 

    LIN_rxCommand	PTR const struct . size(2) Largest target is 5
		 -> scheduleTable(CODE[4]), NULL(NULL[0]), 

    LIN_rxCommand$data	PTR unsigned char  size(1) Largest target is 8
		 -> SIGNAL_Data(BANK1[8]), 

    LIN_sendPacket@data	PTR unsigned char  size(1) Largest target is 13
		 -> LIN_packet(BANK0[13]), 

    memcpy@d	PTR unsigned char  size(1) Largest target is 13
		 -> LIN_packet(BANK0[13]), processLIN@tempRxData(BANK0[8]), 

    memcpy@d1	PTR void  size(1) Largest target is 13
		 -> LIN_packet(BANK0[13]), processLIN@tempRxData(BANK0[8]), 

    memcpy@s	PTR const unsigned char  size(1) Largest target is 13
		 -> LIN_packet(BANK0[13]), LIN_packet$data(BANK0[8]), SIGNAL_Data(BANK1[8]), 

    memcpy@s1	PTR const void  size(1) Largest target is 13
		 -> LIN_packet(BANK0[13]), LIN_packet$data(BANK0[8]), SIGNAL_Data(BANK1[8]), 

    memset@dest	PTR void  size(1) Largest target is 13
		 -> LIN_packet(BANK0[13]), 

    memset@p	PTR unsigned char  size(1) Largest target is 13
		 -> LIN_packet(BANK0[13]), 

    S26$data	PTR unsigned char  size(1) Largest target is 8
		 -> SIGNAL_Data(BANK1[8]), 

    scheduleTable$data	PTR unsigned char  size(1) Largest target is 8
		 -> SIGNAL_Data(BANK1[8]), 

    sp__memcpy	PTR void  size(1) Largest target is 13
		 -> LIN_packet(BANK0[13]), processLIN@tempRxData(BANK0[8]), 

    sp__memset	PTR void  size(1) Largest target is 13
		 -> LIN_packet(BANK0[13]), 

    TMR0_InterruptHandler	PTR FTN()void  size(2) Largest target is 1
		 -> LIN_timerHandler(), TMR0_DefaultInterruptHandler(), NULL(), 

    TMR0_SetInterruptHandler@InterruptHandler	PTR FTN()void  size(2) Largest target is 1
		 -> LIN_timerHandler(), TMR0_DefaultInterruptHandler(), 


Critical Paths under _main in COMMON

    _TMR0_Initialize->_TMR0_SetInterruptHandler
    _LIN_Slave_Initialize->_LIN_init
    _LIN_setTimerHandler->_TMR0_SetInterruptHandler
    _EUSART_Initialize->_EUSART_SetErrorHandler
    _EUSART_Initialize->_EUSART_SetFramingErrorHandler
    _EUSART_Initialize->_EUSART_SetOverrunErrorHandler
    _EUSART_Initialize->_EUSART_SetRxInterruptHandler
    _EUSART_Initialize->_EUSART_SetTxInterruptHandler
    _processLIN->_LIN_getPacket
    _POS_ON->_EPWM1_LoadDutyValue
    _POS_OFF->_EPWM1_LoadDutyValue
    _LIN_getPacket->_memcpy
    _DRL_ON->_EPWM1_LoadDutyValue
    _DRL_OFF->_EPWM1_LoadDutyValue
    _LIN_startTimer->_TMR0_WriteTimer
    _LIN_queuePacket->_LIN_sendPacket
    _LIN_sendPacket->_LIN_getChecksum
    _LIN_checkPID->_LIN_getFromTable
    _LIN_breakCheck->_EUSART_Read

Critical Paths under _INTERRUPT_InterruptManager in COMMON

    _INTERRUPT_InterruptManager->_EUSART_Transmit_ISR
    _TMR0_ISR->_LIN_timerHandler
    _EUSART_Receive_ISR->_EUSART_RxDataHandler
    _EUSART_DefaultErrorHandler->_EUSART_RxDataHandler

Critical Paths under _main in BANK0

    _LIN_handler->_LIN_queuePacket
    _LIN_queuePacket->_LIN_sendPacket

Critical Paths under _INTERRUPT_InterruptManager in BANK0

    None.

Critical Paths under _main in BANK1

    _main->_LIN_handler

Critical Paths under _INTERRUPT_InterruptManager in BANK1

    None.

Critical Paths under _main in BANK2

    None.

Critical Paths under _INTERRUPT_InterruptManager in BANK2

    None.

Critical Paths under _main in BANK3

    None.

Critical Paths under _INTERRUPT_InterruptManager in BANK3

    None.

Critical Paths under _main in BANK4

    None.

Critical Paths under _INTERRUPT_InterruptManager in BANK4

    None.

Critical Paths under _main in BANK5

    None.

Critical Paths under _INTERRUPT_InterruptManager in BANK5

    None.

Critical Paths under _main in BANK6

    None.

Critical Paths under _INTERRUPT_InterruptManager in BANK6

    None.

Call Graph Tables:

 ---------------------------------------------------------------------------------
 (Depth) Function   	        Calls       Base Space   Used Autos Params    Refs
 ---------------------------------------------------------------------------------
 (0) _main                                                 0     0      0    8755
                        _LIN_handler
                  _SYSTEM_Initialize
 ---------------------------------------------------------------------------------
 (1) _SYSTEM_Initialize                                    0     0      0    1056
                   _EPWM1_Initialize
                  _EUSART_Initialize
               _LIN_Slave_Initialize
              _OSCILLATOR_Initialize
             _PIN_MANAGER_Initialize
                    _TMR0_Initialize
                    _TMR2_Initialize
                     _WDT_Initialize
 ---------------------------------------------------------------------------------
 (2) _WDT_Initialize                                       0     0      0       0
 ---------------------------------------------------------------------------------
 (2) _TMR2_Initialize                                      0     0      0       0
 ---------------------------------------------------------------------------------
 (2) _TMR0_Initialize                                      0     0      0     174
           _TMR0_SetInterruptHandler
 ---------------------------------------------------------------------------------
 (2) _PIN_MANAGER_Initialize                               0     0      0       0
 ---------------------------------------------------------------------------------
 (2) _OSCILLATOR_Initialize                                0     0      0       0
 ---------------------------------------------------------------------------------
 (2) _LIN_Slave_Initialize                                 0     0      0     392
                           _LIN_init
 ---------------------------------------------------------------------------------
 (3) _LIN_init                                             5     1      4     392
                                              3 COMMON     5     1      4
                       _LIN_enableRx
                _LIN_setTimerHandler
                      _LIN_stopTimer
 ---------------------------------------------------------------------------------
 (4) _LIN_setTimerHandler                                  0     0      0     174
           _TMR0_SetInterruptHandler
 ---------------------------------------------------------------------------------
 (3) _TMR0_SetInterruptHandler                             2     0      2     174
                                              1 COMMON     2     0      2
 ---------------------------------------------------------------------------------
 (2) _EUSART_Initialize                                    0     0      0     490
             _EUSART_SetErrorHandler
      _EUSART_SetFramingErrorHandler
      _EUSART_SetOverrunErrorHandler
       _EUSART_SetRxInterruptHandler
       _EUSART_SetTxInterruptHandler
 ---------------------------------------------------------------------------------
 (3) _EUSART_SetTxInterruptHandler                         2     0      2      98
                                              1 COMMON     2     0      2
 ---------------------------------------------------------------------------------
 (3) _EUSART_SetRxInterruptHandler                         2     0      2      98
                                              1 COMMON     2     0      2
 ---------------------------------------------------------------------------------
 (3) _EUSART_SetOverrunErrorHandler                        2     0      2      98
                                              1 COMMON     2     0      2
 ---------------------------------------------------------------------------------
 (3) _EUSART_SetFramingErrorHandler                        2     0      2      98
                                              1 COMMON     2     0      2
 ---------------------------------------------------------------------------------
 (3) _EUSART_SetErrorHandler                               2     0      2      98
                                              1 COMMON     2     0      2
 ---------------------------------------------------------------------------------
 (2) _EPWM1_Initialize                                     0     0      0       0
 ---------------------------------------------------------------------------------
 (1) _LIN_handler                                          2     2      0    7699
                                              0 BANK1      2     2      0
                                NULL *
                        _EUSART_Read
                 _EUSART_is_rx_ready
                     _LIN_breakCheck
                       _LIN_checkPID
                      _LIN_disableRx
                       _LIN_enableRx
                    _LIN_getChecksum
                   _LIN_getFromTable
                    _LIN_queuePacket
                     _LIN_startTimer
                      _LIN_stopTimer
                             _memset
                         _processLIN *
 ---------------------------------------------------------------------------------
 (2) _processLIN                                           9     9      0    2841
                                              0 BANK0      9     9      0
                            _DRL_OFF
                             _DRL_ON
                         _HIBEAM_OFF
                          _HIBEAM_ON
                      _LIN_getPacket
                            _POS_OFF
                             _POS_ON
 ---------------------------------------------------------------------------------
 (3) _POS_ON                                               0     0      0     348
                _EPWM1_LoadDutyValue
 ---------------------------------------------------------------------------------
 (3) _POS_OFF                                              0     0      0     348
                _EPWM1_LoadDutyValue
 ---------------------------------------------------------------------------------
 (3) _LIN_getPacket                                        2     2      0    1057
                                              9 COMMON     2     2      0
                             _memcpy
                             _memset
 ---------------------------------------------------------------------------------
 (4) _memset                                               7     3      4     466
                                              1 COMMON     7     3      4
 ---------------------------------------------------------------------------------
 (3) _HIBEAM_ON                                            0     0      0       0
 ---------------------------------------------------------------------------------
 (3) _HIBEAM_OFF                                           0     0      0       0
 ---------------------------------------------------------------------------------
 (3) _DRL_ON                                               0     0      0     348
                _EPWM1_LoadDutyValue
 ---------------------------------------------------------------------------------
 (3) _DRL_OFF                                              0     0      0     348
                _EPWM1_LoadDutyValue
 ---------------------------------------------------------------------------------
 (4) _EPWM1_LoadDutyValue                                  4     2      2     348
                                              1 COMMON     4     2      2
 ---------------------------------------------------------------------------------
 (4) _LIN_stopTimer                                        0     0      0       0
 ---------------------------------------------------------------------------------
 (2) _LIN_startTimer                                       1     1      0      44
                                              2 COMMON     1     1      0
                    _TMR0_WriteTimer
 ---------------------------------------------------------------------------------
 (3) _TMR0_WriteTimer                                      1     1      0      22
                                              1 COMMON     1     1      0
 ---------------------------------------------------------------------------------
 (2) _LIN_queuePacket                                      8     8      0    2439
                                              3 BANK0      8     8      0
                    _LIN_getChecksum
                     _LIN_sendPacket
                             _memcpy
 ---------------------------------------------------------------------------------
 (4) _memcpy                                               8     5      3     513
                                              1 COMMON     8     5      3
 ---------------------------------------------------------------------------------
 (3) _LIN_sendPacket                                       5     3      2    1086
                                              9 COMMON     2     0      2
                                              0 BANK0      3     3      0
                       _EUSART_Write
                    _LIN_getChecksum
 ---------------------------------------------------------------------------------
 (4) _LIN_getChecksum                                      8     6      2     639
                                              1 COMMON     8     6      2
 ---------------------------------------------------------------------------------
 (4) _EUSART_Write                                         2     2      0      44
                                              1 COMMON     2     2      0
 ---------------------------------------------------------------------------------
 (4) _LIN_enableRx                                         0     0      0       0
 ---------------------------------------------------------------------------------
 (2) _LIN_disableRx                                        0     0      0       0
 ---------------------------------------------------------------------------------
 (2) _LIN_checkPID                                         1     1      0     813
                                              8 COMMON     1     1      0
                     _LIN_calcParity
                   _LIN_getFromTable
 ---------------------------------------------------------------------------------
 (2) _LIN_getFromTable                                     7     6      1     409
                                              1 COMMON     7     6      1
 ---------------------------------------------------------------------------------
 (3) _LIN_calcParity                                       3     3      0     338
                                              1 COMMON     3     3      0
 ---------------------------------------------------------------------------------
 (2) _LIN_breakCheck                                       0     0      0      24
                        _EUSART_Read
             _EUSART_get_last_status
 ---------------------------------------------------------------------------------
 (3) _EUSART_get_last_status                               0     0      0       0
 ---------------------------------------------------------------------------------
 (3) _EUSART_Read                                          2     2      0      24
                                              1 COMMON     2     2      0
 ---------------------------------------------------------------------------------
 (2) _EUSART_is_rx_ready                                   0     0      0       0
 ---------------------------------------------------------------------------------
 (8) NULL(Fake)                                            0     0      0       0
 ---------------------------------------------------------------------------------
 Estimated maximum stack depth 8
 ---------------------------------------------------------------------------------
 (Depth) Function   	        Calls       Base Space   Used Autos Params    Refs
 ---------------------------------------------------------------------------------
 (6) _INTERRUPT_InterruptManager                           0     0      0       0
                                NULL *
                 _EUSART_Receive_ISR *
                _EUSART_Transmit_ISR *
                           _TMR0_ISR
 ---------------------------------------------------------------------------------
 (7) _TMR0_ISR                                             0     0      0       0
                                NULL *
                   _LIN_timerHandler *
       _TMR0_DefaultInterruptHandler *
 ---------------------------------------------------------------------------------
 (8) _TMR0_DefaultInterruptHandler                         0     0      0       0
 ---------------------------------------------------------------------------------
 (8) _LIN_timerHandler                                     1     1      0       0
                                              0 COMMON     1     1      0
 ---------------------------------------------------------------------------------
 (7) _EUSART_Transmit_ISR                                  1     1      0       0
                                              0 COMMON     1     1      0
 ---------------------------------------------------------------------------------
 (7) _EUSART_Receive_ISR                                   0     0      0       0
                                NULL *
         _EUSART_DefaultErrorHandler *
  _EUSART_DefaultFramingErrorHandler *
  _EUSART_DefaultOverrunErrorHandler *
               _EUSART_RxDataHandler
 ---------------------------------------------------------------------------------
 (8) _EUSART_DefaultOverrunErrorHandler                    0     0      0       0
 ---------------------------------------------------------------------------------
 (8) _EUSART_DefaultFramingErrorHandler                    0     0      0       0
 ---------------------------------------------------------------------------------
 (8) _EUSART_DefaultErrorHandler                           0     0      0       0
               _EUSART_RxDataHandler
 ---------------------------------------------------------------------------------
 (8) _EUSART_RxDataHandler                                 1     1      0       0
                                              0 COMMON     1     1      0
 ---------------------------------------------------------------------------------
 (8) NULL(Fake)                                            0     0      0       0
 ---------------------------------------------------------------------------------
 Estimated maximum stack depth 8
 ---------------------------------------------------------------------------------

 Call Graph Graphs:

 _main (ROOT)
   _LIN_handler
     NULL(Fake) *
     _EUSART_Read *
     _EUSART_is_rx_ready *
     _LIN_breakCheck *
       _EUSART_Read
       _EUSART_get_last_status
     _LIN_checkPID *
       _LIN_calcParity
       _LIN_getFromTable
     _LIN_disableRx *
     _LIN_enableRx *
     _LIN_getChecksum *
     _LIN_getFromTable *
     _LIN_queuePacket *
       _LIN_getChecksum
       _LIN_sendPacket
         _EUSART_Write
         _LIN_getChecksum
       _memcpy
     _LIN_startTimer *
       _TMR0_WriteTimer
     _LIN_stopTimer *
     _memset *
     _processLIN *
       _DRL_OFF
         _EPWM1_LoadDutyValue
       _DRL_ON
         _EPWM1_LoadDutyValue
       _HIBEAM_OFF
       _HIBEAM_ON
       _LIN_getPacket
         _memcpy
         _memset
       _POS_OFF
         _EPWM1_LoadDutyValue
       _POS_ON
         _EPWM1_LoadDutyValue
   _SYSTEM_Initialize
     _EPWM1_Initialize
     _EUSART_Initialize
       _EUSART_SetErrorHandler
       _EUSART_SetFramingErrorHandler
       _EUSART_SetOverrunErrorHandler
       _EUSART_SetRxInterruptHandler
       _EUSART_SetTxInterruptHandler
     _LIN_Slave_Initialize
       _LIN_init
         _LIN_enableRx
         _LIN_setTimerHandler
           _TMR0_SetInterruptHandler
         _LIN_stopTimer
     _OSCILLATOR_Initialize
     _PIN_MANAGER_Initialize
     _TMR0_Initialize
       _TMR0_SetInterruptHandler
     _TMR2_Initialize
     _WDT_Initialize

 _INTERRUPT_InterruptManager (ROOT)
   NULL(Fake) *
   _EUSART_Receive_ISR *
     NULL(Fake) *
     _EUSART_DefaultErrorHandler *
       _EUSART_RxDataHandler
     _EUSART_DefaultFramingErrorHandler *
     _EUSART_DefaultOverrunErrorHandler *
     _EUSART_RxDataHandler *
   _EUSART_Transmit_ISR *
   _TMR0_ISR *
     NULL(Fake) *
     _LIN_timerHandler *
     _TMR0_DefaultInterruptHandler *

 Address spaces:
Name               Size   Autos  Total    Cost      Usage
BIGRAM             1F0      0       0       0        0.0%
EEDATA             100      0       0       0        0.0%
NULL                 0      0       0       0        0.0%
CODE                 0      0       0       0        0.0%
BITCOMMON            E      0       0       1        0.0%
BITSFR0              0      0       0       1        0.0%
SFR0                 0      0       0       1        0.0%
COMMON               E      B       D       2       92.9%
BITSFR1              0      0       0       2        0.0%
SFR1                 0      0       0       2        0.0%
BITSFR2              0      0       0       3        0.0%
SFR2                 0      0       0       3        0.0%
STACK                0      0       0       3        0.0%
BITSFR3              0      0       0       4        0.0%
SFR3                 0      0       0       4        0.0%
ABS                  0      0      66       4        0.0%
BITBANK0            50      0       0       5        0.0%
BITSFR4              0      0       0       5        0.0%
SFR4                 0      0       0       5        0.0%
BANK0               50      B      4F       6       98.8%
BITSFR5              0      0       0       6        0.0%
SFR5                 0      0       0       6        0.0%
BITBANK1            50      0       0       7        0.0%
BITSFR6              0      0       0       7        0.0%
SFR6                 0      0       0       7        0.0%
BANK1               50      2       A       8       12.5%
BITSFR7              0      0       0       8        0.0%
SFR7                 0      0       0       8        0.0%
BITBANK2            50      0       0       9        0.0%
BITSFR8              0      0       0       9        0.0%
SFR8                 0      0       0       9        0.0%
BANK2               50      0       0      10        0.0%
BITSFR9              0      0       0      10        0.0%
SFR9                 0      0       0      10        0.0%
BITBANK3            50      0       0      11        0.0%
BITSFR10             0      0       0      11        0.0%
SFR10                0      0       0      11        0.0%
BANK3               50      0       0      12        0.0%
BITSFR11             0      0       0      12        0.0%
SFR11                0      0       0      12        0.0%
BITBANK4            50      0       0      13        0.0%
BITSFR12             0      0       0      13        0.0%
SFR12                0      0       0      13        0.0%
BANK4               50      0       0      14        0.0%
BITSFR13             0      0       0      14        0.0%
SFR13                0      0       0      14        0.0%
BITBANK5            50      0       0      15        0.0%
BITSFR14             0      0       0      15        0.0%
SFR14                0      0       0      15        0.0%
BANK5               50      0       0      16        0.0%
BITSFR15             0      0       0      16        0.0%
SFR15                0      0       0      16        0.0%
BITBANK6            10      0       0      17        0.0%
BITSFR16             0      0       0      17        0.0%
SFR16                0      0       0      17        0.0%
BANK6               10      0       0      18        0.0%
BITSFR17             0      0       0      18        0.0%
SFR17                0      0       0      18        0.0%
BITSFR18             0      0       0      19        0.0%
SFR18                0      0       0      19        0.0%
DATA                 0      0      66      19        0.0%
BITSFR19             0      0       0      20        0.0%
SFR19                0      0       0      20        0.0%
BITSFR20             0      0       0      21        0.0%
SFR20                0      0       0      21        0.0%
BITSFR21             0      0       0      22        0.0%
SFR21                0      0       0      22        0.0%
BITSFR22             0      0       0      23        0.0%
SFR22                0      0       0      23        0.0%
BITSFR23             0      0       0      24        0.0%
SFR23                0      0       0      24        0.0%
BITSFR24             0      0       0      25        0.0%
SFR24                0      0       0      25        0.0%
BITSFR25             0      0       0      26        0.0%
SFR25                0      0       0      26        0.0%
BITSFR26             0      0       0      27        0.0%
SFR26                0      0       0      27        0.0%
BITSFR27             0      0       0      28        0.0%
SFR27                0      0       0      28        0.0%
BITSFR28             0      0       0      29        0.0%
SFR28                0      0       0      29        0.0%
BITSFR29             0      0       0      30        0.0%
SFR29                0      0       0      30        0.0%
BITSFR30             0      0       0      31        0.0%
SFR30                0      0       0      31        0.0%
BITSFR31             0      0       0      32        0.0%
SFR31                0      0       0      32        0.0%


Microchip Technology PIC Macro Assembler V2.46 build 20240104201356 
Symbol Table                                                                                   Tue Nov 25 14:45:36 2025

                       __end_of_LIN_breakCheck 05CC                  ?_EUSART_SetRxInterruptHandler 0071  
                        __end_of_LIN_getPacket 04F8                          ??_LIN_setTimerHandler 0073  
                        __end_of_LIN_disableRx 069D                                             l41 0650  
                                           l35 0648                                             l44 065E  
                                           l52 06B0                                             l61 05F6  
                                           l54 06B2                                             l38 0657  
                                           l47 06AD                                             l49 06AF  
                                           l73 01D7                                             l83 01DE  
                                           l84 01E4                                             l86 01EA  
                                           l96 021C                                             l88 01F9  
                              _timer0ReloadVal 0048                                ?_LIN_calcParity 0070  
                                          l213 04B9                                            l207 0171  
                                          l224 0377                                            l216 04F7  
                                          l161 05A4                                            l234 0546  
                                          l244 041E                                            l420 0682  
                                          l500 061C                                            l261 0697  
                                          l245 0421                                            l238 02A2  
                                          l423 067C                                            l255 0640  
                                          l503 06A4                                            l264 069C  
                                          l168 030D                                            l248 0610  
                                          l432 0676                                            l258 068D  
                                          l426 0688                                            l363 03B5  
                                          l268 05CB                                            l285 0603  
                                          l429 0670                                            l382 046F  
                                          l534 0512                                            l375 06B5  
                                          l391 0449                                            l560 0692  
                                          l288 058E                                            l369 0630  
                                          l570 066A                                            l554 05B8  
                                          l387 0429                                            l388 0432  
                                          l494 055F                                            l497 0617  
                                          l586 0638                                            _PR2 001B  
                                          u690 061C                                            u691 061B  
                                          u995 0587                         ??_EUSART_RxDataHandler 0070  
               ?_EUSART_SetFramingErrorHandler 0071                       __end_of_LIN_getFromTable 0378  
                              _TMR2_Initialize 0631                                            wreg 0009  
               __end_of_EUSART_get_last_status 06B6                          __end_of_scheduleTable 06A1  
                                 ?_EUSART_Read 0070                                __end_of_DRL_OFF 065F  
                                         l2021 0460                                           l2013 044A  
                                         l2101 067D                                           l1214 0488  
                                         l2031 046E                                           l2023 0466  
                                         l2015 044A                                           l1223 052C  
                                         l2103 0677                                           l2025 0467  
                                         l2017 0450                                           l2041 031A  
                                         l1217 0494                                           l2201 0219  
                                         l2121 0178                                           l2105 0683  
                                         l2027 0469                                           l2019 045C  
                                         l2051 0339                                           l2035 030F  
                                         l2131 0189                                           l2123 0179  
                                         l2029 046C                                           l2045 0325  
                                         l2053 033D                                           l2037 0314  
                                         l2141 01A1                                           l2133 018B  
                                         l2125 017B                                           l2301 03AE  
                                         l2117 05EA                                           l2063 0357  
                                         l2055 0344                                           l2047 0337  
                                         l2039 0318                                           l2231 0605  
                                         l2151 01B9                                           l2143 01A3  
                                         l2135 0191                                           l2127 0181  
                                         l2119 0172                                           l2303 03B3  
                                         l2311 05AA                                           l2241 05C1  
                                         l2233 0608                                           l2161 01C6  
                                         l2145 01A9                                           l2137 0197  
                                         l2129 0187                                           l2313 05AD  
                                         l2321 0547                                           l2227 0628  
                                         l2243 05C8                                           l2083 021E  
                                         l2059 034A                                           l2251 052E  
                                         l2091 068F                                           l2235 060C  
                                         l2163 01CC                                           l2155 01BB  
                                         l2147 01AF                                           l2139 019D  
                                         l2171 01D7                                           l2315 05AF  
                                         l2093 06B3                                           l2085 0298  
                                         l2069 0364                                           l2253 0539  
                                         l2237 060D                                           l2181 01F1  
                                         l2173 01DB                                           l2165 01D2  
                                         l2157 01C1                                           l2149 01B5  
                                         l2317 05B0                                           l2309 05A5  
                                         l2247 05CA                                           l2239 05B9  
                                         l2087 02A1                                           l2191 0204  
                                         l2175 01E2                                           l2319 05B1  
                                         l2257 053B                                           l2193 0209  
                                         l2177 01E8                                           l2185 01F4  
                                         l2601 0088                                           l2097 0671  
                                         l2281 038D                                           l2273 0378  
                                         l1641 0504                                           l1633 04F8  
                                         l2259 0545                                           l2267 0698  
                                         l2195 020D                                           l2187 01FD  
                                         l2179 01EE                                           l2611 00A0  
                                         l2603 008C                                           l2099 066B  
                                         l2291 039C                                           l2283 038F  
                                         l2275 037A                                           l1651 0614  
                                         l1643 0506                                           l1635 04FD  
                                         l2197 0210                                           l2189 0201  
                                         l2621 00C0                                           l2613 00A8  
                                         l2605 0094                                           l2293 03A3  
                                         l2285 0391                                           l2277 0381  
                                         l1653 0615                                           l1645 0509  
                                         l1637 0500                                           l1661 0635  
                                         l2551 04A3                                           l2199 0215  
                                         l2631 00D7                                           l2623 00C5  
                                         l2615 00AD                                           l2607 009C  
                                         l1591 05FF                                           l1583 05F7  
                                         l2295 03AA                                           l2287 0393  
                                         l2279 038A                                           l1911 0665  
                                         l1647 050E                                           l1639 0502  
                                         l1663 0636                                           l1655 06A1  
                                         l2553 04A8                                           l2561 02AD  
                                         l1913 0578                                           l2641 00FB  
                                         l2633 00DF                                           l2625 00CD  
                                         l1593 0600                                           l1585 05FA  
                                         l2297 03AC                                           l2289 0395  
                                         l1921 0639                                           l1649 0611  
                                         l1657 0631                                           l1931 03F0  
                                         l2555 04AE                                           l2547 0497  
                                         l1923 0471                                           l2563 02AF  
                                         l2571 02C2                                           l1915 0689  
                                         l2651 011F                                           l2643 0103  
                                         l2635 00EC                                           l2627 00D0  
                                         l2619 00B7                                           l1595 0601  
                                         l1587 05FB                                           l2299 03AD  
                                         l1659 0634                                           l1941 0410  
                                         l1933 03F7                                           l2549 0499  
                                         l1925 0476                                           l2573 02C8  
                                         l2557 02A5                                           l1917 068A  
                                         l2661 012E                                           l2653 0122  
                                         l2637 00F7                                           l2629 00D3  
                                         l2581 0054                                           l1589 05FD  
                                         l1919 0693                                           l1943 0414  
                                         l1935 03F9                                           l1927 047B  
                                         l2575 02E2                                           l2567 02BA  
                                         l2559 02A9                                           l1951 0514  
                                         l2663 0139                                           l2655 0128  
                                         l2647 0117                                           l2639 00F8  
                                         l2591 006E                                           l2583 005A  
                                         l2761 036C                                           l1961 0423  
                                         l1937 0403                                           l1945 0418  
                                         l1929 047F                                           l2577 02FA  
                                         l2569 02BE                                           l1953 0517  
                                         l2665 013E                                           l2657 012B  
                                         l2649 011A                                           l2593 0071  
                                         l2585 005F                                           l2673 0148  
                                         l2681 061D                                           l1971 0444  
                                         l1963 042E                                           l1947 0420  
                                         l1939 0407                                           l2579 0305  
                                         l1955 051C                                           l2667 0141  
                                         l2659 012D                                           l2595 0074  
                                         l2587 0062                                           l2683 0620  
                                         l1973 0445                                           l1965 0433  
                                         l1981 0649                                           l1957 0520  
                                         l2669 0144                                           l2597 007C  
                                         l2589 006A                                           l2685 0621  
                                         l1967 043A                                           l1975 0447  
                                         l1959 0423                                           l1983 0658  
                                         l2759 0151                                           l2599 0084  
                                         l1991 05A1                                           l2687 0622  
                                         l1969 043E                                           l1993 04DD  
                                         l1977 0641                                           l1985 0590  
                                         l1995 04E1                                           l1979 0651  
                                         l1987 059B                                           l1997 04EB  
                                         l1989 059E                                           l1999 04F6  
                                         u1000 0494                                           u1001 0493  
                                         u1010 0410                                           u1011 040F  
                                         u1100 0324                                           u1020 041E  
                                         u1101 0323                                           u1021 041D  
                                         u1110 0337                                           u1030 052C  
                                         u1111 0336                                           u1031 052B  
                                         u1120 0343                                           u1040 0429  
                                         u2000 006A                                           u1121 0342  
                                         u1041 0428                                           u2001 0069  
                                         u1210 024D                                           u1130 0225  
                                         u1050 042E                                           u2010 007C  
                                         u1211 024B                                           u1131 0223  
                                         u1051 042D                                           u2011 007B  
                                         u1300 027C                                           u1220 0254  
                                         u1212 024E                                           u1204 0248  
                                         u1140 022C                                           u1132 0226  
                                         u1060 0444                                           u2100 0103  
                                         u2020 0084                                           u1301 027A  
                                         u1221 0252                                           u1141 022A  
                                         u1061 0443                                           u2101 0102  
                                         u2021 0083                                           u1310 0283  
                                         u1302 027D                                           u1230 025B  
                                         u1222 0255                                           u1150 0233  
                                         u1142 022D                                           u2110 0116  
                                         u2030 0094                                           u1311 0281  
                                         u1231 0259                                           u1151 0231  
                                         u2111 0115                                           u2031 0093  
                                         u1080 0450                                           u1400 0181  
                                         u2120 013E                                           u2040 009C  
                                         u1081 044F                                           u1401 0180  
                                         u2121 013D                                           u2041 009B  
                                         u1090 0466                                           u1330 0289  
                                         u1250 0261                                           u1170 0239  
                                         u1410 0187                                           u2050 00A8  
                                         u1091 0465                                           u1331 0287  
                                         u1251 025F                                           u1171 0237  
                                         u1411 0186                                           u2051 00A7  
                                         u1340 0290                                           u1332 028A  
                                         u1324 0284                                           u1260 0268  
                                         u1252 0262                                           u1244 025C  
                                         u1180 0240                                           u1172 023A  
                                         u1164 0234                                           u1500 01D2  
                                         u1420 0191                                           u2060 00B6  
                                         u1341 028E                                           u1261 0266  
                                         u1181 023E                                           u1501 01D1  
                                         u1421 0190                                           u2061 00B5  
                                         _LATA 010C                                           u1350 0297  
                                         u1342 0291                                           u1270 026F  
                                         u1262 0269                                           u1190 0247  
                                         u1182 0241                                           u1510 01DB  
                                         u1430 0197                                           u2070 00C5  
                                         _LATB 010D                                           u1351 0295  
                                         u1271 026D                                           u1191 0245  
                                         u1511 01DA                                           u1431 0196  
                                         u2071 00C4                                           _LATC 010E  
                                         u1600 062F                                           u1520 01E2  
                                         u1440 019D                                           u2080 00DF  
                                         u1601 062D                                           u1521 01E1  
                                         u1441 019C                                           u2081 00DE  
                                         _LATE 0110                                           u1610 0630  
                                         u1370 02A0                                           u1290 0275  
                                         u1530 01E8                                           u1450 01A9  
                                         u2090 00F7                                           u1371 029E  
                                         u1291 0273                                           u1531 01E7  
                                         u1451 01A8                                           u2091 00F6  
                                         u1620 05C1                                           u1364 0298  
                                         u1292 0276                                           u1284 0270  
                                         u1540 01EE                                           u1460 01AF  
                                         u1621 05C0                                           u1541 01ED  
                                         u1461 01AE                                           u1630 05C8  
                                         u1550 01FD                                           u1470 01B5  
                                         u1631 05C7                                           u1551 01FC  
                                         u1471 01B4                                           u1384 02A1  
                                         u1640 0539                                           u1560 0209  
                                         u1480 01C1                                           u1641 0538  
                                         u1561 0208                                           u1481 01C0  
                                         u1650 0545                                           u1570 0215  
                                         u1490 01CC                                           u1651 0544  
                                         u1571 0214                                           u1491 01CB  
                                         u1950 04AE                                           u1951 04AD  
                                         u1960 02B9                                           u1961 02B8  
                                         u1970 02C8                                           u1971 02C7  
                                         u1980 005A                                           u1981 0059  
                                         u1990 005F                                           u1991 005E  
                                         _PLLR 04D6                                           _TMR0 0015  
                                         _TMR2 001A                                           _WPUB 020D  
                                         _WPUE 0210                                 _LIN_sendPacket 0495  
                              __end_of_POS_OFF 0658                                           _main 061D  
                                         fsr0h 0005                                           fsr1h 0007  
                                         indf0 0000                                           fsr0l 0004  
                                         indf1 0001                                           fsr1l 0006  
                                         btemp 007E                                           start 0038  
                        ??_EPWM1_LoadDutyValue 0073                                  processLIN@cmd 0063  
                              ?_LIN_breakCheck 0070                        __end_of_TMR0_Initialize 05B9  
               ??_TMR0_DefaultInterruptHandler 0070                                  ?_EUSART_Write 0070  
                __end_of_OSCILLATOR_Initialize 061D                              LIN_sendPacket@pid 0079  
                                        ?_main 0070                                LIN_init@command 0073  
                                        _T2CON 001C                                          i1l411 06B8  
                                        i1l404 03EE                                          i1l252 05E9  
                                        i1l414 06A8                                          i1l408 0577  
                                        i1l417 06AC                                          i1l460 0036  
                                        i1l461 0036                                          i1l453 0012  
                                        i1l456 0026                                          i1l394 04D9  
                                        i1l397 04DB                                          i1l573 06B7  
                              _TMR0_WriteTimer 068E                                          i1l567 05DB  
                                        _RCREG 0199                                          _RCSTA 019D  
                                        _TRISA 008C                                          _TRISB 008D  
                                        _TRISC 008E                                          _TRISE 0090  
                                        _TXREG 019A                               __end_of_LIN_init 05A5  
                        __end_of_LIN_stopTimer 068E                                          _TXSTA 019E  
                    ?_TMR0_SetInterruptHandler 0071                               __end_of_TMR0_ISR 05DC  
                               _WDT_Initialize 06A1                         __end_of_LIN_sendPacket 04BA  
                                        pclath 000A                                 _LIN_startTimer 0604  
                                        status 0003                                          wtemp0 007E  
                             ?_LIN_getChecksum 0071                              __end_of_HIBEAM_ON 06B0  
                  LIN_queuePacket@tempSchedule 006C                                __initialization 003A  
                                 ?_LIN_handler 0070                                   __end_of_main 0628  
                               ??_EUSART_Write 0071                        __end_of_TMR2_Initialize 0639  
                  ?_INTERRUPT_InterruptManager 0070                 ??_EUSART_SetRxInterruptHandler 0073  
                                       ??_main 007B                                      ??_DRL_OFF 0075  
                       __end_of_WDT_Initialize 06A5                             LIN_sendPacket@data 007A  
    __end_of_EUSART_DefaultFramingErrorHandler 06B9            ??_EUSART_DefaultFramingErrorHandler 0070  
           ?_EUSART_DefaultFramingErrorHandler 0070              _EUSART_DefaultFramingErrorHandler 06B8  
                                    ??_POS_OFF 0075                     _EUSART_OverrunErrorHandler 003C  
                       __end_of_LIN_startTimer 0611                                ?_LIN_sendPacket 0079  
                                       _CCPR1H 0292                                         _CCPR1L 0291  
                                       _APFCON 011D                                         _ANSELA 018C  
                                       _ANSELB 018D                     __end_of_EUSART_is_rx_ready 0631  
                                       _BORCON 0116                                         i1l2111 056B  
                                       i1l2113 0571                                         i1l2115 0572  
                                       i1l2107 0560                                         i1l2109 0567  
                                       i1l2305 06A5                                         i1l2307 06A9  
                                       i1l2421 04BA                                         i1l2431 04D4  
                                       i1l2423 04C1                                         i1l2271 05E7  
                                       i1l2441 03CB                                         i1l2433 03B6  
                                       i1l2425 04C8                                         i1l2451 03EB  
                                       i1l2443 03D0                                         i1l2435 03BB  
                                       i1l2427 04CD                                         i1l2445 03D5  
                                       i1l2437 03C0                                         i1l2429 04D3  
                                       i1l2269 05DC                                         i1l2453 05CC  
                                       i1l2447 03DB                                         i1l2439 03C5  
                                       i1l2455 05CD                                         i1l2471 000A  
                                       i1l2449 03E4                                         i1l2457 05D0  
                                       i1l2481 002B                                         i1l2473 000E  
                                       i1l2459 05D6                                         i1l2483 0030  
                                       i1l2475 0016                                         i1l2477 001B  
                                       i1l2469 0006                                         i1l2479 0020  
                                       _DRL_ON 0649                                         u139_20 0571  
                                       u139_21 0570                                         u182_20 04C1  
                                       u166_20 05E7                                         u190_20 0016  
                                       u182_21 04C0                                         u166_21 05E6  
                                       u190_21 0015                                         u183_20 04D3  
                                       u191_20 001B                                         u183_21 04D2  
                                       u191_21 001A                                         u184_20 03C0  
                                       u192_20 0020                                         u184_21 03BF  
                                       u192_21 001F                                         u185_20 03D0  
                                       u193_20 002B                                         u185_21 03CF  
                                       u193_21 002A                                         u186_20 03E4  
                                       u194_20 0030                                         u186_21 03E3  
                                       u194_21 002F                                         u187_20 05D6  
                                       u187_21 05D5                                         u188_20 000A  
                                       u188_21 0009                                         u189_20 000E  
                                       u189_21 000D                                         _OSCCON 0099  
                                       _SPBRGH 019C                                         _SPBRGL 019B  
                                       _WDTCON 0097                                         _POS_ON 0641  
                              _LIN_processData 0046                                   _CCPTMRS0bits 029E  
                              _LIN_queuePacket 02A3                        __end_of_TMR0_WriteTimer 0693  
                          _EUSART_Transmit_ISR 04BA                                         _memcpy 0470  
                             ?_TMR0_Initialize 0070                                         _memset 0513  
                                 ??_HIBEAM_OFF 0071                                ?_WDT_Initialize 0070  
                             _LIN_rxInProgress 0053       TMR0_SetInterruptHandler@InterruptHandler 0071  
                              ?_LIN_startTimer 0070                           ?_EUSART_Transmit_ISR 0070  
                            _SYSTEM_Initialize 0547                        __end_of__initialization 0050  
                           ?_SYSTEM_Initialize 0070                             __end_of_HIBEAM_OFF 06B3  
                                ?_LIN_checkPID 0070           __end_of_EUSART_SetTxInterruptHandler 0671  
                 _EUSART_SetTxInterruptHandler 066B                              ?_EPWM1_Initialize 0070  
                                    ?_LIN_init 0073                                 __pcstackCOMMON 0070  
                                ?_LIN_enableRx 0070                               ??_LIN_calcParity 0071  
                              LIN_sendPacket@i 0065                                   __pidataBANK0 06B6  
                          ??_SYSTEM_Initialize 0078                                      ?_TMR0_ISR 0070  
                           ??_EPWM1_Initialize 0071                               ?_TMR2_Initialize 0070  
                       LIN_handler@rxDataIndex 004E                                 _OPTION_REGbits 0095  
                         _eusartRxStatusBuffer 0020                              ?_LIN_getFromTable 0071  
                       LIN_handler@LIN_rxState 004F                ??_EUSART_SetOverrunErrorHandler 0073  
                           ??_LIN_getFromTable 0072                      __end_of_SYSTEM_Initialize 0560  
                        ??_EUSART_Transmit_ISR 0070                                     __pbssBANK0 0020  
                                   __pbssBANK1 00A0                                        ?_DRL_ON 0070  
                         __end_of_EUSART_Write 044A                                        ?_POS_ON 0070  
                             ??_LIN_breakCheck 0073                                 ??_LIN_checkPID 0078  
                  __end_of_LIN_setTimerHandler 0641                        __end_of_LIN_queuePacket 030E  
                               ??_LIN_enableRx 0071                                     __pmaintext 061D  
                             _LIN_timerHandler 05DC                                     ??_LIN_init 0077  
                          LIN_getChecksum@data 0072                  ?_EUSART_SetTxInterruptHandler 0071  
             _EUSART_TxDefaultInterruptHandler 0042               __end_of_TMR0_SetInterruptHandler 066B  
                                   ??_TMR0_ISR 0071                                     __pintentry 0004  
                             ?_TMR0_WriteTimer 0070                                        _CCP1CON 0293  
                                      _ECCP1AS 0295                                        ?_memcpy 0071  
                                      _BAUDCON 019F                                        ?_memset 0071  
                 ??_EUSART_DefaultErrorHandler 0071                          LIN_getChecksum@length 0075  
                             _LIN_timerRunning 0051                                  _eusartRxCount 004A  
                                      _DRL_OFF 0658                                        _OSCTUNE 0098  
                                      _PWM1CON 0294                                        _POS_OFF 0651  
                     ??_EUSART_SetErrorHandler 0073                    __end_of_EPWM1_LoadDutyValue 058F  
                      LIN_getChecksum@checksum 0077                   __end_of_LIN_Slave_Initialize 05F7  
                                    _HIBEAM_ON 06AD                                        __ptext1 0547  
                                      __ptext2 06A1                                        __ptext3 0631  
                                      __ptext4 05A5                                        __ptext5 04F8  
                                      __ptext6 0611                                        __ptext7 05EA  
                                      __ptext8 058F                                        __ptext9 0639  
                        _OSCILLATOR_Initialize 0611                               ??_LIN_sendPacket 0063  
                                    _T2CONbits 001C                       ??_PIN_MANAGER_Initialize 0071  
                                      clrloop0 0660                      LIN_getFromTable@rxCommand 0076  
                         end_of_initialization 0050          __end_of_EUSART_SetOverrunErrorHandler 067D  
                _EUSART_SetOverrunErrorHandler 0677                                        memcpy@d 0076  
                                      memcpy@n 0072                                        memcpy@s 0077  
                                      memset@c 0071                                        memset@n 0073  
                                      memset@p 0076                              _EUSART_Initialize 0378  
                             ?_LIN_queuePacket 0070                             ?_EUSART_Initialize 0070  
                                    _RCSTAbits 019D                             _EUSART_is_rx_ready 0628  
                                _LIN_getPacket 04DC                                     ?_HIBEAM_ON 0070  
                                _LIN_disableRx 0698                       ??_EUSART_get_last_status 0071  
                          ??_EUSART_Initialize 0073                               ??_WDT_Initialize 0071  
               ??_EUSART_SetTxInterruptHandler 0073                              LIN_getPacket@data 007A  
                     _TMR0_SetInterruptHandler 0665                            ?_EUSART_is_rx_ready 0070  
                                   _processLIN 0172                           __end_of_LIN_checkPID 0547  
                          LIN_init@tableLength 0077                               ??_LIN_startTimer 0072  
                         __end_of_LIN_enableRx 0698                                  _scheduleTable 069D  
                    __end_of_EUSART_Initialize 03B6                           ??_EUSART_is_rx_ready 0071  
                               __end_of_DRL_ON 0651                                      _TXSTAbits 019E  
                               __end_of_POS_ON 0649                                  _LIN_rxCommand 0044  
                               ?_LIN_getPacket 0070                                 ?_LIN_disableRx 0070  
           __end_of_EUSART_DefaultErrorHandler 06AD                     _EUSART_DefaultErrorHandler 06A9  
                                 _EUSART_Write 0422                                 __end_of_memcpy 0495  
                       ?_OSCILLATOR_Initialize 0070                                 __end_of_memset 052D  
                          start_initialization 003A                                  _LIN_stopTimer 0689  
                     __end_of_LIN_timerHandler 05EA                           _LIN_Slave_Initialize 05EA  
                                ??_EUSART_Read 0071   EUSART_SetRxInterruptHandler@interruptHandler 0071  
 EUSART_SetTxInterruptHandler@interruptHandler 0071                   EPWM1_LoadDutyValue@dutyValue 0071  
                                     ??_DRL_ON 0075                          LIN_startTimer@timeout 0072  
                                     ??_POS_ON 0075                              LIN_calcParity@CMD 0072  
               ?_EUSART_SetOverrunErrorHandler 0071                              LIN_calcParity@PID 0073  
                   _EUSART_FramingErrorHandler 003E                         _EUSART_SetErrorHandler 0683  
                                  ??_HIBEAM_ON 0071                                    __pdataBANK0 006E  
                                     ??_memcpy 0074                                       ??_memset 0075  
                         processLIN@tempRxData 0064                                     memset@dest 0077  
                                  ?_processLIN 0070                            LIN_init@processData 0075  
                                     ?_DRL_OFF 0070                    __end_of_EUSART_Transmit_ISR 04DC  
                               ?_LIN_stopTimer 0070                                    __pbssCOMMON 007B  
                                    ___latbits 0002                                  __pcstackBANK0 0063  
                                __pcstackBANK1 00A8                              ??_LIN_getChecksum 0073  
                        ?_LIN_Slave_Initialize 0070                                       ?_POS_OFF 0070  
                   __end_of_EUSART_Receive_ISR 03EF               _EUSART_RxDefaultInterruptHandler 0040  
                          __end_of_EUSART_Read 0470                          _TMR0_InterruptHandler 0038  
                 __end_of_EUSART_RxDataHandler 0578                                ??_LIN_getPacket 0079  
                       _PIN_MANAGER_Initialize 04F8                                  ??_LIN_handler 00A8  
                             LIN_getChecksum@i 0076                                ??_LIN_disableRx 0071  
                         EUSART_Read@readValue 0072                             LIN_getChecksum@pid 0071  
                         LIN_sendPacket@length 0064                                   _eusartRxHead 007C  
                                 _eusartTxHead 004D                                   _eusartRxTail 007B  
                                 _eusartTxTail 004C                   ??_INTERRUPT_InterruptManager 0071  
                                    _lampFlags 0054                        _eusartTxBufferRemaining 004B  
                                    _lampState 0055                                LIN_checkPID@pid 0078  
                               _eusartRxBuffer 0028                         _EUSART_get_last_status 06B3  
                            ??_TMR0_Initialize 0073                                 _eusartTxBuffer 0030  
                                     _LATAbits 010C         EUSART_SetErrorHandler@interruptHandler 0071  
                                    clear_ram0 065F                                       _PIE1bits 0091  
                            _eusartRxLastError 0049                                   _LIN_checkPID 052D  
                   ??_TMR0_SetInterruptHandler 0073                                       _PIR1bits 0011  
              ??_EUSART_SetFramingErrorHandler 0073                                       _LIN_init 058F  
                                 _LIN_enableRx 0693                                       _TMR0_ISR 05CC  
    __end_of_EUSART_DefaultOverrunErrorHandler 06A9            ??_EUSART_DefaultOverrunErrorHandler 0070  
           ?_EUSART_DefaultOverrunErrorHandler 0070              _EUSART_DefaultOverrunErrorHandler 06A5  
                                     _PSTR1CON 0296                               LIN_getPacket@cmd 0079  
                          __end_of_LIN_handler 0172                                ??_LIN_stopTimer 0071  
                       ??_LIN_Slave_Initialize 0078                               _EPWM1_Initialize 05F7  
                                  _EUSART_Read 044A                              ??_TMR2_Initialize 0071  
                             _LIN_getFromTable 030E                                      memcpy@tmp 0075  
                      ??_OSCILLATOR_Initialize 0071                            _EUSART_ErrorHandler 003A  
                  ?_EUSART_DefaultErrorHandler 0070                                     _HIBEAM_OFF 06B0  
                         _EUSART_RxDataHandler 0560                                       __ptext10 0665  
                                     __ptext11 0378                                       __ptext20 0641  
                                     __ptext12 066B                                       __ptext21 0651  
                                     __ptext13 0671                                       __ptext30 0604  
                                     __ptext22 04DC                                       __ptext14 0677  
                                     __ptext31 068E                                       __ptext23 0513  
                                     __ptext15 067D                                       __ptext40 030E  
                                     __ptext32 02A3                                       __ptext24 06AD  
                                     __ptext16 0683                                       __ptext41 021D  
                                     __ptext33 0470                                       __ptext25 06B0  
                                     __ptext17 05F7                                       __ptext50 04BA  
                                     __ptext42 05B9                                       __ptext34 0495  
                                     __ptext26 0649                                       __ptext18 0054  
                                     __ptext51 03B6                                       __ptext43 06B3  
                                     __ptext35 03EF                                       __ptext27 0658  
                                     __ptext19 0172                                       __ptext52 06A5  
                                     __ptext44 044A                                       __ptext36 0422  
                                     __ptext28 0578                                       __ptext53 06B8  
                                     __ptext45 0628                                       __ptext37 0693  
                                     __ptext29 0689                                       __ptext54 06A9  
                                     __ptext38 0698                                       __ptext55 0560  
                                     __ptext47 05CC                                       __ptext39 052D  
                                     __ptext48 05DC                                       __ptext49 06B7  
                            ?_LIN_timerHandler 0070                        TMR0_WriteTimer@timerVal 0071  
                           ??_LIN_timerHandler 0070                              ??_TMR0_WriteTimer 0071  
                       LIN_getFromTable@length 0075           __end_of_TMR0_DefaultInterruptHandler 06B8  
                 _TMR0_DefaultInterruptHandler 06B7                                    _SIGNAL_Data 00A0  
                      ?_EUSART_SetErrorHandler 0071                            _LIN_rxCommandLength 0052  
EUSART_SetOverrunErrorHandler@interruptHandler 0071                                    _LIN_handler 0054  
                                     int$flags 007E                                _LIN_getChecksum 03EF  
           __end_of_INTERRUPT_InterruptManager 0038                     _INTERRUPT_InterruptManager 0004  
        __end_of_EUSART_SetFramingErrorHandler 0683                  _EUSART_SetFramingErrorHandler 067D  
                                 ??_processLIN 007B                                    _LIN_timeout 006E  
                               _LIN_calcParity 021D                                     _INTCONbits 000B  
                        ?_EUSART_RxDataHandler 0070                                       memcpy@d1 0078  
                                     memcpy@s1 0071                            _LIN_setTimerHandler 0639  
                                     intlevel1 0000                                  _CountCallBack 0050  
                      ?_PIN_MANAGER_Initialize 0070                 __end_of_EUSART_SetErrorHandler 0689  
                        LIN_getFromTable@param 0071                             __end_of_processLIN 021D  
         __end_of_EUSART_SetRxInterruptHandler 0677                   _EUSART_SetRxInterruptHandler 0671  
                ?_TMR0_DefaultInterruptHandler 0070                                     _LIN_packet 0056  
                           _EUSART_Receive_ISR 03B6                           ?_LIN_setTimerHandler 0070  
EUSART_SetFramingErrorHandler@interruptHandler 0071                                 _LIN_breakCheck 05B9  
                                  ?_HIBEAM_OFF 0070                         __end_of_LIN_calcParity 02A3  
                                __pstringtext1 069D                             LIN_queuePacket@cmd 006A  
                                   _OPTION_REG 0095                            ?_EUSART_Receive_ISR 0070  
                              _TMR0_Initialize 05A5                              ??_LIN_queuePacket 0066  
                          _EPWM1_LoadDutyValue 0578                        ?_EUSART_get_last_status 0070  
                           EUSART_Write@txData 0072                 __end_of_PIN_MANAGER_Initialize 0513  
                          LIN_getFromTable@cmd 0074                               LIN_queuePacket@i 006B  
                         ??_EUSART_Receive_ISR 0071                        __end_of_LIN_getChecksum 0422  
                     __end_of_EPWM1_Initialize 0604                           ?_EPWM1_LoadDutyValue 0071  
